(lp0
(lp1
Vgrain
p2
aVwheat
p3
aVcorn
p4
aa(lp5
Vcorn
p6
aVgrain
p7
aVwheat
p8
aa(lp9
Vearn
p10
aa(lp11
Vearn
p12
aa(lp13
Vearn
p14
aa(lp15
Vearn
p16
aa(lp17
Vearn
p18
aa(lp19
Vearn
p20
aa(lp21
Vwheat
p22
aVgrain
p23
aa(lp24
Vearn
p25
aa(lp26
Vearn
p27
aa(lp28
Vearn
p29
aa(lp30
Vearn
p31
aa(lp32
Vearn
p33
aa(lp34
Vearn
p35
aa(lp36
Vearn
p37
aa(lp38
Vearn
p39
aa(lp40
Vship
p41
aa(lp42
Vtrade
p43
aa(lp44
Vship
p45
aa(lp46
Vearn
p47
aa(lp48
Vearn
p49
aa(lp50
Vearn
p51
aa(lp52
Vgrain
p53
aVcorn
p54
aa(lp55
Vship
p56
aa(lp57
Vearn
p58
aa(lp59
Vearn
p60
aa(lp61
Vearn
p62
aa(lp63
Vearn
p64
aa(lp65
Vearn
p66
aa(lp67
Vearn
p68
aa(lp69
Vearn
p70
aa(lp71
Vearn
p72
aa(lp73
Vearn
p74
aa(lp75
Vearn
p76
aa(lp77
Vearn
p78
aa(lp79
Vearn
p80
aa(lp81
Vgrain
p82
aVwheat
p83
aVcorn
p84
aa(lp85
Vearn
p86
aa(lp87
Vgrain
p88
aVship
p89
aa(lp90
Vearn
p91
aa(lp92
Vearn
p93
aa(lp94
Vearn
p95
aa(lp96
Vgrain
p97
aa(lp98
Vearn
p99
aa(lp100
Vcrude
p101
aa(lp102
Vearn
p103
aa(lp104
Vearn
p105
aa(lp106
Vgrain
p107
aa(lp108
Vearn
p109
aa(lp110
Vearn
p111
aa(lp112
Vearn
p113
aa(lp114
Vearn
p115
aa(lp116
Vearn
p117
aa(lp118
Vcrude
p119
aa(lp120
Vearn
p121
aa(lp122
Vearn
p123
aa(lp124
Vearn
p125
aa(lp126
Vearn
p127
aa(lp128
Vearn
p129
aa(lp130
Vearn
p131
aa(lp132
Vearn
p133
aa(lp134
Vearn
p135
aa(lp136
Vearn
p137
aa(lp138
Vearn
p139
aa(lp140
Vearn
p141
aa(lp142
Vearn
p143
aa(lp144
Vearn
p145
aa(lp146
Vgrain
p147
aVwheat
p148
aa(lp149
Vearn
p150
aa(lp151
Vearn
p152
aa(lp153
Vcrude
p154
aa(lp155
Vcrude
p156
aa(lp157
Vgrain
p158
aVcorn
p159
aa(lp160
Vcrude
p161
aa(lp162
Vearn
p163
aa(lp164
Vgrain
p165
aVcorn
p166
aa(lp167
Vearn
p168
aa(lp169
Vearn
p170
aa(lp171
Vearn
p172
aa(lp173
Vcrude
p174
aa(lp175
Vearn
p176
aa(lp177
Vearn
p178
aa(lp179
Vmoney-fx
p180
aVinterest
p181
aa(lp182
Vinterest
p183
aa(lp184
Vgrain
p185
aa(lp186
Vinterest
p187
aa(lp188
Vgrain
p189
aVwheat
p190
aVcorn
p191
aa(lp192
Vcrude
p193
aa(lp194
Vcrude
p195
aa(lp196
Vgrain
p197
aVwheat
p198
aa(lp199
Vcrude
p200
aa(lp201
Vcrude
p202
aa(lp203
Vmoney-fx
p204
aa(lp205
Vcrude
p206
aa(lp207
Vgrain
p208
aVwheat
p209
aa(lp210
Vgrain
p211
aVwheat
p212
aa(lp213
Vmoney-fx
p214
aa(lp215
Vtrade
p216
aa(lp217
Vcrude
p218
aa(lp219
Vearn
p220
aa(lp221
Vship
p222
aa(lp223
Vmoney-fx
p224
aVinterest
p225
aa(lp226
Vearn
p227
aa(lp228
Vmoney-fx
p229
aVinterest
p230
aa(lp231
Vtrade
p232
aa(lp233
Vearn
p234
aa(lp235
Vinterest
p236
aa(lp237
Vgrain
p238
aVcorn
p239
aa(lp240
Vmoney-fx
p241
aVinterest
p242
aa(lp243
Vtrade
p244
aa(lp245
Vmoney-fx
p246
aVinterest
p247
aa(lp248
Vtrade
p249
aa(lp250
Vearn
p251
aa(lp252
Vcrude
p253
aa(lp254
Vcrude
p255
aa(lp256
Vcrude
p257
aa(lp258
Vtrade
p259
aa(lp260
Vearn
p261
aa(lp262
Vcrude
p263
aVship
p264
aa(lp265
Vearn
p266
aa(lp267
Vearn
p268
aa(lp269
Vearn
p270
aa(lp271
Vearn
p272
aa(lp273
Vearn
p274
aa(lp275
Vgrain
p276
aVwheat
p277
aVcorn
p278
aa(lp279
Vearn
p280
aa(lp281
Vearn
p282
aa(lp283
Vearn
p284
aa(lp285
Vearn
p286
aa(lp287
Vearn
p288
aa(lp289
Vearn
p290
aa(lp291
Vearn
p292
aa(lp293
Vearn
p294
aa(lp295
Vmoney-fx
p296
aVinterest
p297
aa(lp298
Vgrain
p299
aa(lp300
Vearn
p301
aa(lp302
Vearn
p303
aa(lp304
Vearn
p305
aa(lp306
Vgrain
p307
aVwheat
p308
aa(lp309
Vearn
p310
aa(lp311
Vearn
p312
aa(lp313
Vearn
p314
aa(lp315
Vearn
p316
aa(lp317
Vearn
p318
aa(lp319
Vearn
p320
aa(lp321
Vcrude
p322
aa(lp323
Vearn
p324
aa(lp325
Vearn
p326
aa(lp327
Vearn
p328
aa(lp329
Vearn
p330
aa(lp331
Vearn
p332
aa(lp333
Vmoney-fx
p334
aVinterest
p335
aa(lp336
Vearn
p337
aa(lp338
Vearn
p339
aa(lp340
Vearn
p341
aa(lp342
Vcrude
p343
aa(lp344
Vearn
p345
aa(lp346
Vearn
p347
aa(lp348
Vgrain
p349
aVcorn
p350
aVwheat
p351
aa(lp352
Vcrude
p353
aa(lp354
Vearn
p355
aa(lp356
Vearn
p357
aa(lp358
Vearn
p359
aa(lp360
Vcrude
p361
aa(lp362
Vearn
p363
aa(lp364
Vearn
p365
aa(lp366
Vearn
p367
aa(lp368
Vgrain
p369
aVcorn
p370
aa(lp371
Vearn
p372
aa(lp373
Vship
p374
aa(lp375
Vmoney-fx
p376
aVinterest
p377
aa(lp378
Vearn
p379
aa(lp380
Vmoney-fx
p381
aVinterest
p382
aa(lp383
Vearn
p384
aa(lp385
Vearn
p386
aa(lp387
Vearn
p388
aa(lp389
Vearn
p390
aa(lp391
Vearn
p392
aa(lp393
Vearn
p394
aa(lp395
Vearn
p396
aa(lp397
Vearn
p398
aa(lp399
Vearn
p400
aa(lp401
Vearn
p402
aa(lp403
Vearn
p404
aa(lp405
Vearn
p406
aa(lp407
Vcrude
p408
aa(lp409
Vearn
p410
aa(lp411
Vearn
p412
aa(lp413
Vearn
p414
aa(lp415
Vearn
p416
aa(lp417
Vearn
p418
aa(lp419
Vearn
p420
aa(lp421
Vearn
p422
aa(lp423
Vship
p424
aa(lp425
Vearn
p426
aa(lp427
Vearn
p428
aa(lp429
Vearn
p430
aa(lp431
Vearn
p432
aa(lp433
Vearn
p434
aa(lp435
Vearn
p436
aa(lp437
Vearn
p438
aa(lp439
Vearn
p440
aa(lp441
Vgrain
p442
aVwheat
p443
aVcorn
p444
aa(lp445
Vearn
p446
aa(lp447
Vearn
p448
aa(lp449
Vearn
p450
aa(lp451
Vearn
p452
aa(lp453
Vearn
p454
aa(lp455
Vearn
p456
aa(lp457
Vearn
p458
aa(lp459
Vcrude
p460
aa(lp461
Vearn
p462
aa(lp463
Vcrude
p464
aa(lp465
Vearn
p466
aa(lp467
Vtrade
p468
aa(lp469
Vearn
p470
aa(lp471
Vearn
p472
aa(lp473
Vearn
p474
aa(lp475
Vearn
p476
aa(lp477
Vearn
p478
aa(lp479
Vearn
p480
aa(lp481
Vgrain
p482
aVwheat
p483
aa(lp484
Vearn
p485
aa(lp486
Vearn
p487
aa(lp488
Vearn
p489
aa(lp490
Vearn
p491
aa(lp492
Vearn
p493
aa(lp494
Vearn
p495
aa(lp496
Vearn
p497
aa(lp498
Vearn
p499
aa(lp500
Vearn
p501
aa(lp502
Vearn
p503
aa(lp504
Vcrude
p505
aa(lp506
Vearn
p507
aa(lp508
Vearn
p509
aa(lp510
Vearn
p511
aa(lp512
Vearn
p513
aa(lp514
Vcrude
p515
aa(lp516
Vearn
p517
aa(lp518
Vtrade
p519
aa(lp520
Vearn
p521
aa(lp522
Vearn
p523
aa(lp524
Vearn
p525
aa(lp526
Vgrain
p527
aVcorn
p528
aa(lp529
Vgrain
p530
aVwheat
p531
aa(lp532
Vship
p533
aa(lp534
Vearn
p535
aa(lp536
Vearn
p537
aa(lp538
Vearn
p539
aa(lp540
Vearn
p541
aa(lp542
Vearn
p543
aa(lp544
Vmoney-fx
p545
aa(lp546
Vcrude
p547
aa(lp548
Vgrain
p549
aVwheat
p550
aa(lp551
Vearn
p552
aa(lp553
Vearn
p554
aa(lp555
Vearn
p556
aa(lp557
Vearn
p558
aa(lp559
Vtrade
p560
aa(lp561
Vearn
p562
aa(lp563
Vinterest
p564
aa(lp565
Vinterest
p566
aa(lp567
Vmoney-fx
p568
aa(lp569
Vmoney-fx
p570
aVinterest
p571
aa(lp572
Vmoney-fx
p573
aa(lp574
Vcrude
p575
aa(lp576
Vearn
p577
aa(lp578
Vearn
p579
aa(lp580
Vearn
p581
aa(lp582
Vtrade
p583
aa(lp584
Vtrade
p585
aa(lp586
Vinterest
p587
aVmoney-fx
p588
aa(lp589
Vcrude
p590
aa(lp591
Vgrain
p592
aVcorn
p593
aa(lp594
Vearn
p595
aa(lp596
Vinterest
p597
aVmoney-fx
p598
aa(lp599
Vmoney-fx
p600
aVinterest
p601
aa(lp602
Vcrude
p603
aa(lp604
Vearn
p605
aa(lp606
Vcrude
p607
aa(lp608
Vmoney-fx
p609
aVinterest
p610
aa(lp611
Vearn
p612
aa(lp613
Vearn
p614
aa(lp615
Vship
p616
aa(lp617
Vearn
p618
aa(lp619
Vearn
p620
aa(lp621
Vearn
p622
aa(lp623
Vearn
p624
aa(lp625
Vearn
p626
aa(lp627
Vearn
p628
aa(lp629
Vearn
p630
aVcrude
p631
aa(lp632
Vtrade
p633
aa(lp634
Vearn
p635
aa(lp636
Vearn
p637
aa(lp638
Vmoney-fx
p639
aVinterest
p640
aa(lp641
Vearn
p642
aa(lp643
Vearn
p644
aa(lp645
Vmoney-fx
p646
aVinterest
p647
aa(lp648
Vearn
p649
aa(lp650
Vearn
p651
aa(lp652
Vearn
p653
aa(lp654
Vearn
p655
aa(lp656
Vearn
p657
aa(lp658
Vearn
p659
aa(lp660
Vearn
p661
aa(lp662
Vearn
p663
aa(lp664
Vtrade
p665
aa(lp666
Vearn
p667
aa(lp668
Vcrude
p669
aa(lp670
Vearn
p671
aa(lp672
Vearn
p673
aa(lp674
Vearn
p675
aa(lp676
Vship
p677
aa(lp678
Vgrain
p679
aVwheat
p680
aa(lp681
Vearn
p682
aa(lp683
Vearn
p684
aa(lp685
Vearn
p686
aa(lp687
Vearn
p688
aa(lp689
Vgrain
p690
aVwheat
p691
aa(lp692
Vgrain
p693
aVwheat
p694
aa(lp695
Vearn
p696
aa(lp697
Vearn
p698
aa(lp699
Vinterest
p700
aa(lp701
Vearn
p702
aa(lp703
Vearn
p704
aa(lp705
Vearn
p706
aa(lp707
Vmoney-fx
p708
aa(lp709
Vearn
p710
aa(lp711
Vearn
p712
aa(lp713
Vgrain
p714
aVwheat
p715
aa(lp716
Vearn
p717
aa(lp718
Vearn
p719
aa(lp720
Vearn
p721
aa(lp722
Vearn
p723
aa(lp724
Vearn
p725
aa(lp726
Vearn
p727
aa(lp728
Vmoney-fx
p729
aVinterest
p730
aa(lp731
Vearn
p732
aa(lp733
Vinterest
p734
aa(lp735
Vearn
p736
aa(lp737
Vearn
p738
aa(lp739
Vinterest
p740
aa(lp741
Vearn
p742
aa(lp743
Vgrain
p744
aVcorn
p745
aa(lp746
Vearn
p747
aa(lp748
Vearn
p749
aa(lp750
Vearn
p751
aa(lp752
Vearn
p753
aa(lp754
Vearn
p755
aa(lp756
Vearn
p757
aa(lp758
Vmoney-fx
p759
aVinterest
p760
aa(lp761
Vearn
p762
aa(lp763
Vearn
p764
aa(lp765
Vearn
p766
aa(lp767
Vearn
p768
aa(lp769
Vearn
p770
aa(lp771
Vearn
p772
aa(lp773
Vearn
p774
aa(lp775
Vearn
p776
aa(lp777
Vearn
p778
aa(lp779
Vearn
p780
aa(lp781
Vearn
p782
aa(lp783
Vgrain
p784
aVwheat
p785
aa(lp786
Vearn
p787
aa(lp788
Vearn
p789
aa(lp790
Vearn
p791
aa(lp792
Vearn
p793
aa(lp794
Vtrade
p795
aa(lp796
Vearn
p797
aa(lp798
Vtrade
p799
aa(lp800
Vearn
p801
aa(lp802
Vtrade
p803
aa(lp804
Vearn
p805
aa(lp806
Vearn
p807
aa(lp808
Vtrade
p809
aa(lp810
Vgrain
p811
aVcorn
p812
aa(lp813
Vearn
p814
aa(lp815
Vtrade
p816
aa(lp817
Vearn
p818
aa(lp819
Vearn
p820
aa(lp821
Vearn
p822
aa(lp823
Vearn
p824
aa(lp825
Vearn
p826
aa(lp827
Vearn
p828
aa(lp829
Vearn
p830
aa(lp831
Vgrain
p832
aVwheat
p833
aVship
p834
aa(lp835
Vearn
p836
aa(lp837
Vearn
p838
aa(lp839
Vearn
p840
aa(lp841
Vearn
p842
aa(lp843
Vgrain
p844
aVcorn
p845
aa(lp846
Vearn
p847
aa(lp848
Vearn
p849
aa(lp850
Vgrain
p851
aVcorn
p852
aa(lp853
Vearn
p854
aa(lp855
Vearn
p856
aa(lp857
Vearn
p858
aa(lp859
Vearn
p860
aa(lp861
Vearn
p862
aa(lp863
Vearn
p864
aa(lp865
Vearn
p866
aa(lp867
Vgrain
p868
aVwheat
p869
aa(lp870
Vearn
p871
aa(lp872
Vgrain
p873
aa(lp874
Vearn
p875
aa(lp876
Vcrude
p877
aa(lp878
Vearn
p879
aa(lp880
Vearn
p881
aa(lp882
Vearn
p883
aa(lp884
Vearn
p885
aa(lp886
Vearn
p887
aa(lp888
Vearn
p889
aa(lp890
Vearn
p891
aa(lp892
Vcrude
p893
aa(lp894
Vearn
p895
aa(lp896
Vearn
p897
aa(lp898
Vearn
p899
aa(lp900
Vcrude
p901
aa(lp902
Vcrude
p903
aa(lp904
Vearn
p905
aa(lp906
Vearn
p907
aa(lp908
Vearn
p909
aa(lp910
Vcrude
p911
aa(lp912
Vearn
p913
aa(lp914
Vearn
p915
aa(lp916
Vtrade
p917
aa(lp918
Vearn
p919
aa(lp920
Vearn
p921
aa(lp922
Vtrade
p923
aa(lp924
Vearn
p925
aa(lp926
Vearn
p927
aa(lp928
Vearn
p929
aa(lp930
Vearn
p931
aa(lp932
Vearn
p933
aa(lp934
Vearn
p935
aa(lp936
Vgrain
p937
aVcorn
p938
aa(lp939
Vearn
p940
aa(lp941
Vgrain
p942
aVwheat
p943
aa(lp944
Vearn
p945
aa(lp946
Vearn
p947
aa(lp948
Vearn
p949
aa(lp950
Vearn
p951
aa(lp952
Vearn
p953
aa(lp954
Vwheat
p955
aVcorn
p956
aa(lp957
Vcrude
p958
aa(lp959
Vgrain
p960
aVwheat
p961
aa(lp962
Vearn
p963
aa(lp964
Vgrain
p965
aVcorn
p966
aa(lp967
Vgrain
p968
aVwheat
p969
aa(lp970
Vgrain
p971
aVcorn
p972
aa(lp973
Vearn
p974
aa(lp975
Vgrain
p976
aVwheat
p977
aa(lp978
Vgrain
p979
aa(lp980
Vearn
p981
aa(lp982
Vearn
p983
aa(lp984
Vmoney-fx
p985
aVinterest
p986
aa(lp987
Vinterest
p988
aa(lp989
Vearn
p990
aa(lp991
Vearn
p992
aa(lp993
Vearn
p994
aa(lp995
Vearn
p996
aa(lp997
Vearn
p998
aa(lp999
Vearn
p1000
aa(lp1001
Vearn
p1002
aa(lp1003
Vearn
p1004
aa(lp1005
Vearn
p1006
aa(lp1007
Vearn
p1008
aa(lp1009
Vmoney-fx
p1010
aa(lp1011
Vearn
p1012
aa(lp1013
Vearn
p1014
aa(lp1015
Vearn
p1016
aa(lp1017
Vearn
p1018
aa(lp1019
Vearn
p1020
aa(lp1021
Vearn
p1022
aa(lp1023
Vtrade
p1024
aa(lp1025
Vearn
p1026
aa(lp1027
Vearn
p1028
aa(lp1029
Vearn
p1030
aa(lp1031
Vearn
p1032
aa(lp1033
Vearn
p1034
aa(lp1035
Vearn
p1036
aa(lp1037
Vtrade
p1038
aa(lp1039
Vearn
p1040
aa(lp1041
Vmoney-fx
p1042
aVinterest
p1043
aa(lp1044
Vearn
p1045
aa(lp1046
Vmoney-fx
p1047
aa(lp1048
Vcrude
p1049
aa(lp1050
Vearn
p1051
aa(lp1052
Vearn
p1053
aa(lp1054
Vearn
p1055
aa(lp1056
Vearn
p1057
aa(lp1058
Vearn
p1059
aa(lp1060
Vearn
p1061
aa(lp1062
Vearn
p1063
aa(lp1064
Vmoney-fx
p1065
aa(lp1066
Vearn
p1067
aa(lp1068
Vearn
p1069
aa(lp1070
Vearn
p1071
aa(lp1072
Vearn
p1073
aa(lp1074
Vearn
p1075
aa(lp1076
Vinterest
p1077
aVmoney-fx
p1078
aa(lp1079
Vearn
p1080
aa(lp1081
Vearn
p1082
aa(lp1083
Vcrude
p1084
aVship
p1085
aa(lp1086
Vgrain
p1087
aa(lp1088
Vmoney-fx
p1089
aVinterest
p1090
aa(lp1091
Vearn
p1092
aa(lp1093
Vearn
p1094
aa(lp1095
Vearn
p1096
aa(lp1097
Vearn
p1098
aa(lp1099
Vearn
p1100
aa(lp1101
Vearn
p1102
aa(lp1103
Vgrain
p1104
aVwheat
p1105
aa(lp1106
Vearn
p1107
aa(lp1108
Vearn
p1109
aa(lp1110
Vearn
p1111
aa(lp1112
Vgrain
p1113
aVcorn
p1114
aa(lp1115
Vearn
p1116
aa(lp1117
Vearn
p1118
aa(lp1119
Vtrade
p1120
aa(lp1121
Vgrain
p1122
aVwheat
p1123
aa(lp1124
Vearn
p1125
aa(lp1126
Vearn
p1127
aa(lp1128
Vearn
p1129
aa(lp1130
Vtrade
p1131
aa(lp1132
Vcrude
p1133
aa(lp1134
Vearn
p1135
aa(lp1136
Vgrain
p1137
aa(lp1138
Vgrain
p1139
aa(lp1140
Vearn
p1141
aa(lp1142
Vearn
p1143
aa(lp1144
Vearn
p1145
aa(lp1146
Vgrain
p1147
aVwheat
p1148
aa(lp1149
Vearn
p1150
aa(lp1151
Vearn
p1152
aa(lp1153
Vearn
p1154
aa(lp1155
Vearn
p1156
aa(lp1157
Vearn
p1158
aa(lp1159
Vearn
p1160
aa(lp1161
Vgrain
p1162
aVcorn
p1163
aa(lp1164
Vearn
p1165
aa(lp1166
Vearn
p1167
aa(lp1168
Vtrade
p1169
aa(lp1170
Vearn
p1171
aa(lp1172
Vearn
p1173
aa(lp1174
Vcrude
p1175
aa(lp1176
Vgrain
p1177
aVwheat
p1178
aa(lp1179
Vtrade
p1180
aa(lp1181
Vearn
p1182
aa(lp1183
Vtrade
p1184
aa(lp1185
Vearn
p1186
aa(lp1187
Vcrude
p1188
aa(lp1189
Vearn
p1190
aa(lp1191
Vearn
p1192
aa(lp1193
Vcrude
p1194
aa(lp1195
Vearn
p1196
aa(lp1197
Vearn
p1198
aa(lp1199
Vearn
p1200
aa(lp1201
Vcrude
p1202
aa(lp1203
Vcrude
p1204
aa(lp1205
Vearn
p1206
aa(lp1207
Vearn
p1208
aa(lp1209
Vearn
p1210
aa(lp1211
Vearn
p1212
aa(lp1213
Vship
p1214
aa(lp1215
Vinterest
p1216
aVmoney-fx
p1217
aa(lp1218
Vearn
p1219
aa(lp1220
Vgrain
p1221
aa(lp1222
Vearn
p1223
aa(lp1224
Vearn
p1225
aa(lp1226
Vearn
p1227
aa(lp1228
Vearn
p1229
aa(lp1230
Vearn
p1231
aa(lp1232
Vearn
p1233
aa(lp1234
Vearn
p1235
aa(lp1236
Vearn
p1237
aa(lp1238
Vearn
p1239
aa(lp1240
Vearn
p1241
aa(lp1242
Vearn
p1243
aa(lp1244
Vearn
p1245
aa(lp1246
Vearn
p1247
aa(lp1248
Vtrade
p1249
aa(lp1250
Vgrain
p1251
aVcorn
p1252
aVwheat
p1253
aa(lp1254
Vearn
p1255
aa(lp1256
Vgrain
p1257
aVwheat
p1258
aa(lp1259
Vearn
p1260
aa(lp1261
Vearn
p1262
aa(lp1263
Vcrude
p1264
aa(lp1265
Vearn
p1266
aa(lp1267
Vtrade
p1268
aa(lp1269
Vmoney-fx
p1270
aVtrade
p1271
aa(lp1272
Vearn
p1273
aa(lp1274
Vearn
p1275
aa(lp1276
Vearn
p1277
aa(lp1278
Vearn
p1279
aa(lp1280
Vearn
p1281
aa(lp1282
Vtrade
p1283
aa(lp1284
Vgrain
p1285
aVcorn
p1286
aa(lp1287
Vgrain
p1288
aa(lp1289
Vearn
p1290
aa(lp1291
Vearn
p1292
aa(lp1293
Vcrude
p1294
aa(lp1295
Vearn
p1296
aa(lp1297
Vcrude
p1298
aa(lp1299
Vearn
p1300
aa(lp1301
Vearn
p1302
aa(lp1303
Vtrade
p1304
aa(lp1305
Vtrade
p1306
aa(lp1307
Vearn
p1308
aa(lp1309
Vearn
p1310
aa(lp1311
Vcrude
p1312
aa(lp1313
Vearn
p1314
aa(lp1315
Vcrude
p1316
aa(lp1317
Vgrain
p1318
aa(lp1319
Vtrade
p1320
aa(lp1321
Vgrain
p1322
aVwheat
p1323
aVship
p1324
aa(lp1325
Vship
p1326
aa(lp1327
Vship
p1328
aVcrude
p1329
aa(lp1330
Vgrain
p1331
aVwheat
p1332
aa(lp1333
Vcrude
p1334
aa(lp1335
Vgrain
p1336
aa(lp1337
Vmoney-fx
p1338
aa(lp1339
Vearn
p1340
aa(lp1341
Vearn
p1342
aa(lp1343
Vearn
p1344
aa(lp1345
Vmoney-fx
p1346
aa(lp1347
Vmoney-fx
p1348
aVinterest
p1349
aa(lp1350
Vtrade
p1351
aa(lp1352
Vtrade
p1353
aa(lp1354
Vmoney-fx
p1355
aVinterest
p1356
aa(lp1357
Vcrude
p1358
aa(lp1359
Vmoney-fx
p1360
aa(lp1361
Vtrade
p1362
aa(lp1363
Vgrain
p1364
aVcorn
p1365
aa(lp1366
Vtrade
p1367
aa(lp1368
Vtrade
p1369
aa(lp1370
Vtrade
p1371
aa(lp1372
Vmoney-fx
p1373
aVinterest
p1374
aa(lp1375
Vgrain
p1376
aVwheat
p1377
aa(lp1378
Vinterest
p1379
aa(lp1380
Vmoney-fx
p1381
aVinterest
p1382
aa(lp1383
Vcrude
p1384
aVship
p1385
aa(lp1386
Vmoney-fx
p1387
aVinterest
p1388
aa(lp1389
Vmoney-fx
p1390
aa(lp1391
Vcrude
p1392
aa(lp1393
Vinterest
p1394
aa(lp1395
Vearn
p1396
aa(lp1397
Vgrain
p1398
aVwheat
p1399
aa(lp1400
Vcrude
p1401
aa(lp1402
Vearn
p1403
aa(lp1404
Vcrude
p1405
aa(lp1406
Vgrain
p1407
aVwheat
p1408
aa(lp1409
Vship
p1410
aa(lp1411
Vearn
p1412
aa(lp1413
Vearn
p1414
aa(lp1415
Vmoney-fx
p1416
aVinterest
p1417
aa(lp1418
Vmoney-fx
p1419
aa(lp1420
Vearn
p1421
aa(lp1422
Vearn
p1423
aa(lp1424
Vearn
p1425
aa(lp1426
Vearn
p1427
aa(lp1428
Vearn
p1429
aa(lp1430
Vearn
p1431
aa(lp1432
Vgrain
p1433
aVwheat
p1434
aVcorn
p1435
aa(lp1436
Vcrude
p1437
aa(lp1438
Vearn
p1439
aa(lp1440
Vearn
p1441
aa(lp1442
Vearn
p1443
aa(lp1444
Vearn
p1445
aa(lp1446
Vearn
p1447
aa(lp1448
Vearn
p1449
aVcrude
p1450
aa(lp1451
Vinterest
p1452
aa(lp1453
Vearn
p1454
aa(lp1455
Vgrain
p1456
aVwheat
p1457
aa(lp1458
Vearn
p1459
aa(lp1460
Vearn
p1461
aa(lp1462
Vearn
p1463
aa(lp1464
Vgrain
p1465
aVwheat
p1466
aa(lp1467
Vearn
p1468
aa(lp1469
Vearn
p1470
aa(lp1471
Vearn
p1472
aa(lp1473
Vearn
p1474
aa(lp1475
Vearn
p1476
aa(lp1477
Vearn
p1478
aa(lp1479
Vcrude
p1480
aa(lp1481
Vearn
p1482
aa(lp1483
Vearn
p1484
aa(lp1485
Vearn
p1486
aa(lp1487
Vearn
p1488
aa(lp1489
Vearn
p1490
aa(lp1491
Vearn
p1492
aa(lp1493
Vearn
p1494
aa(lp1495
Vearn
p1496
aa(lp1497
Vearn
p1498
aa(lp1499
Vinterest
p1500
aa(lp1501
Vearn
p1502
aa(lp1503
Vearn
p1504
aa(lp1505
Vearn
p1506
aa(lp1507
Vearn
p1508
aa(lp1509
Vgrain
p1510
aVwheat
p1511
aa(lp1512
Vgrain
p1513
aa(lp1514
Vgrain
p1515
aVwheat
p1516
aVcorn
p1517
aa(lp1518
Vearn
p1519
aa(lp1520
Vcrude
p1521
aa(lp1522
Vcrude
p1523
aa(lp1524
Vearn
p1525
aa(lp1526
Vmoney-fx
p1527
aa(lp1528
Vmoney-fx
p1529
aa(lp1530
Vearn
p1531
aa(lp1532
Vgrain
p1533
aVcorn
p1534
aa(lp1535
Vcrude
p1536
aVship
p1537
aa(lp1538
Vearn
p1539
aa(lp1540
Vmoney-fx
p1541
aa(lp1542
Vgrain
p1543
aVwheat
p1544
aa(lp1545
Vearn
p1546
aa(lp1547
Vearn
p1548
aa(lp1549
Vearn
p1550
aa(lp1551
Vearn
p1552
aa(lp1553
Vearn
p1554
aa(lp1555
Vearn
p1556
aa(lp1557
Vearn
p1558
aa(lp1559
Vearn
p1560
aa(lp1561
Vearn
p1562
aa(lp1563
Vearn
p1564
aa(lp1565
Vgrain
p1566
aVwheat
p1567
aVcorn
p1568
aa(lp1569
Vearn
p1570
aa(lp1571
Vgrain
p1572
aVwheat
p1573
aa(lp1574
Vearn
p1575
aa(lp1576
Vinterest
p1577
aa(lp1578
Vearn
p1579
aa(lp1580
Vcrude
p1581
aa(lp1582
Vgrain
p1583
aa(lp1584
Vearn
p1585
aa(lp1586
Vearn
p1587
aa(lp1588
Vearn
p1589
aa(lp1590
Vearn
p1591
aa(lp1592
Vearn
p1593
aa(lp1594
Vearn
p1595
aa(lp1596
Vearn
p1597
aa(lp1598
Vearn
p1599
aa(lp1600
Vgrain
p1601
aVcorn
p1602
aa(lp1603
Vearn
p1604
aa(lp1605
Vearn
p1606
aa(lp1607
Vearn
p1608
aa(lp1609
Vearn
p1610
aa(lp1611
Vearn
p1612
aa(lp1613
Vearn
p1614
aa(lp1615
Vtrade
p1616
aa(lp1617
Vearn
p1618
aa(lp1619
Vmoney-fx
p1620
aa(lp1621
Vearn
p1622
aa(lp1623
Vearn
p1624
aa(lp1625
Vearn
p1626
aa(lp1627
Vearn
p1628
aa(lp1629
Vearn
p1630
aa(lp1631
Vearn
p1632
aa(lp1633
Vearn
p1634
aa(lp1635
Vship
p1636
aa(lp1637
Vearn
p1638
aa(lp1639
Vearn
p1640
aa(lp1641
Vearn
p1642
aa(lp1643
Vship
p1644
aa(lp1645
Vmoney-fx
p1646
aa(lp1647
Vearn
p1648
aa(lp1649
Vearn
p1650
aa(lp1651
Vearn
p1652
aa(lp1653
Vtrade
p1654
aa(lp1655
Vearn
p1656
aa(lp1657
Vearn
p1658
aa(lp1659
Vearn
p1660
aa(lp1661
Vearn
p1662
aa(lp1663
Vearn
p1664
aa(lp1665
Vearn
p1666
aa(lp1667
Vearn
p1668
aa(lp1669
Vearn
p1670
aa(lp1671
Vearn
p1672
aa(lp1673
Vtrade
p1674
aVmoney-fx
p1675
aa(lp1676
Vearn
p1677
aa(lp1678
Vmoney-fx
p1679
aa(lp1680
Vearn
p1681
aa(lp1682
Vinterest
p1683
aa(lp1684
Vtrade
p1685
aa(lp1686
Vearn
p1687
aa(lp1688
Vgrain
p1689
aVwheat
p1690
aa(lp1691
Vearn
p1692
aa(lp1693
Vearn
p1694
aa(lp1695
Vearn
p1696
aa(lp1697
Vearn
p1698
aa(lp1699
Vgrain
p1700
aVwheat
p1701
aVcorn
p1702
aa(lp1703
Vcrude
p1704
aa(lp1705
Vearn
p1706
aa(lp1707
Vearn
p1708
aa(lp1709
Vearn
p1710
aa(lp1711
Vearn
p1712
aa(lp1713
Vearn
p1714
aa(lp1715
Vearn
p1716
aa(lp1717
Vearn
p1718
aa(lp1719
Vearn
p1720
aa(lp1721
Vearn
p1722
aa(lp1723
Vmoney-fx
p1724
aa(lp1725
Vearn
p1726
aa(lp1727
Vtrade
p1728
aa(lp1729
Vearn
p1730
aa(lp1731
Vgrain
p1732
aVwheat
p1733
aa(lp1734
Vearn
p1735
aa(lp1736
Vearn
p1737
aa(lp1738
Vearn
p1739
aa(lp1740
Vearn
p1741
aa(lp1742
Vgrain
p1743
aVcorn
p1744
aa(lp1745
Vearn
p1746
aa(lp1747
Vearn
p1748
aa(lp1749
Vcrude
p1750
aa(lp1751
Vmoney-fx
p1752
aa(lp1753
Vgrain
p1754
aVcorn
p1755
aa(lp1756
Vearn
p1757
aa(lp1758
Vearn
p1759
aa(lp1760
Vearn
p1761
aa(lp1762
Vearn
p1763
aa(lp1764
Vearn
p1765
aa(lp1766
Vearn
p1767
aa(lp1768
Vearn
p1769
aa(lp1770
Vearn
p1771
aa(lp1772
Vearn
p1773
aa(lp1774
Vearn
p1775
aa(lp1776
Vearn
p1777
aa(lp1778
Vearn
p1779
aa(lp1780
Vearn
p1781
aa(lp1782
Vearn
p1783
aa(lp1784
Vtrade
p1785
aa(lp1786
Vearn
p1787
aa(lp1788
Vgrain
p1789
aVwheat
p1790
aa(lp1791
Vtrade
p1792
aVcrude
p1793
aa(lp1794
Vearn
p1795
aa(lp1796
Vcrude
p1797
aa(lp1798
Vcrude
p1799
aa(lp1800
Vearn
p1801
aa(lp1802
Vearn
p1803
aa(lp1804
Vtrade
p1805
aa(lp1806
Vcrude
p1807
aa(lp1808
Vgrain
p1809
aVwheat
p1810
aa(lp1811
Vcrude
p1812
aa(lp1813
Vtrade
p1814
aVgrain
p1815
aVwheat
p1816
aa(lp1817
Vearn
p1818
aa(lp1819
Vship
p1820
aa(lp1821
Vearn
p1822
aa(lp1823
Vearn
p1824
aa(lp1825
Vearn
p1826
aa(lp1827
Vearn
p1828
aa(lp1829
Vearn
p1830
aa(lp1831
Vearn
p1832
aa(lp1833
Vearn
p1834
aa(lp1835
Vmoney-fx
p1836
aa(lp1837
Vearn
p1838
aa(lp1839
Vearn
p1840
aa(lp1841
Vearn
p1842
aa(lp1843
Vearn
p1844
aa(lp1845
Vmoney-fx
p1846
aVinterest
p1847
aa(lp1848
Vearn
p1849
aa(lp1850
Vearn
p1851
aa(lp1852
Vearn
p1853
aa(lp1854
Vcrude
p1855
aa(lp1856
Vearn
p1857
aa(lp1858
Vearn
p1859
aa(lp1860
Vearn
p1861
aa(lp1862
Vearn
p1863
aa(lp1864
Vgrain
p1865
aVcorn
p1866
aa(lp1867
Vgrain
p1868
aVcorn
p1869
aa(lp1870
Vmoney-fx
p1871
aVinterest
p1872
aa(lp1873
Vearn
p1874
aa(lp1875
Vearn
p1876
aa(lp1877
Vearn
p1878
aa(lp1879
Vearn
p1880
aa(lp1881
Vgrain
p1882
aVcorn
p1883
aa(lp1884
Vtrade
p1885
aa(lp1886
Vearn
p1887
aa(lp1888
Vtrade
p1889
aa(lp1890
Vtrade
p1891
aa(lp1892
Vmoney-fx
p1893
aa(lp1894
Vmoney-fx
p1895
aVinterest
p1896
aa(lp1897
Vearn
p1898
aa(lp1899
Vmoney-fx
p1900
aa(lp1901
Vship
p1902
aa(lp1903
Vearn
p1904
aa(lp1905
Vtrade
p1906
aa(lp1907
Vearn
p1908
aa(lp1909
Vearn
p1910
aa(lp1911
Vearn
p1912
aa(lp1913
Vearn
p1914
aa(lp1915
Vearn
p1916
aa(lp1917
Vearn
p1918
aa(lp1919
Vearn
p1920
aa(lp1921
Vearn
p1922
aa(lp1923
Vearn
p1924
aa(lp1925
Vearn
p1926
aa(lp1927
Vmoney-fx
p1928
aVinterest
p1929
aa(lp1930
Vship
p1931
aa(lp1932
Vmoney-fx
p1933
aVinterest
p1934
aa(lp1935
Vearn
p1936
aa(lp1937
Vcrude
p1938
aa(lp1939
Vearn
p1940
aa(lp1941
Vearn
p1942
aa(lp1943
Vearn
p1944
aa(lp1945
Vinterest
p1946
aVmoney-fx
p1947
aa(lp1948
Vearn
p1949
aa(lp1950
Vearn
p1951
aa(lp1952
Vinterest
p1953
aa(lp1954
Vearn
p1955
aa(lp1956
Vearn
p1957
aa(lp1958
Vearn
p1959
aa(lp1960
Vearn
p1961
aa(lp1962
Vearn
p1963
aa(lp1964
Vinterest
p1965
aa(lp1966
Vgrain
p1967
aVcorn
p1968
aa(lp1969
Vearn
p1970
aa(lp1971
Vgrain
p1972
aVwheat
p1973
aVcorn
p1974
aa(lp1975
Vearn
p1976
aa(lp1977
Vgrain
p1978
aVwheat
p1979
aa(lp1980
Vearn
p1981
aa(lp1982
Vgrain
p1983
aVcorn
p1984
aa(lp1985
Vearn
p1986
aa(lp1987
Vearn
p1988
aa(lp1989
Vearn
p1990
aa(lp1991
Vearn
p1992
aa(lp1993
Vearn
p1994
aa(lp1995
Vearn
p1996
aa(lp1997
Vearn
p1998
aa(lp1999
Vmoney-fx
p2000
aa(lp2001
Vcrude
p2002
aa(lp2003
Vearn
p2004
aa(lp2005
Vearn
p2006
aa(lp2007
Vearn
p2008
aa(lp2009
Vcrude
p2010
aa(lp2011
Vcorn
p2012
aVgrain
p2013
aa(lp2014
Vearn
p2015
aa(lp2016
Vearn
p2017
aa(lp2018
Vearn
p2019
aa(lp2020
Vearn
p2021
aa(lp2022
Vearn
p2023
aa(lp2024
Vearn
p2025
aa(lp2026
Vearn
p2027
aa(lp2028
Vearn
p2029
aa(lp2030
Vearn
p2031
aa(lp2032
Vearn
p2033
aa(lp2034
Vearn
p2035
aa(lp2036
Vearn
p2037
aa(lp2038
Vship
p2039
aa(lp2040
Vearn
p2041
aa(lp2042
Vearn
p2043
aa(lp2044
Vearn
p2045
aa(lp2046
Vearn
p2047
aa(lp2048
Vship
p2049
aa(lp2050
Vearn
p2051
aa(lp2052
Vearn
p2053
aa(lp2054
Vcrude
p2055
aa(lp2056
Vearn
p2057
aa(lp2058
Vgrain
p2059
aVcorn
p2060
aa(lp2061
Vearn
p2062
aa(lp2063
Vearn
p2064
aa(lp2065
Vship
p2066
aa(lp2067
Vearn
p2068
aa(lp2069
Vgrain
p2070
aVwheat
p2071
aa(lp2072
Vtrade
p2073
aa(lp2074
Vgrain
p2075
aVwheat
p2076
aa(lp2077
Vearn
p2078
aa(lp2079
Vearn
p2080
aa(lp2081
Vearn
p2082
aa(lp2083
Vearn
p2084
aa(lp2085
Vearn
p2086
aa(lp2087
Vearn
p2088
aa(lp2089
Vearn
p2090
aa(lp2091
Vearn
p2092
aa(lp2093
Vgrain
p2094
aVcorn
p2095
aa(lp2096
Vearn
p2097
aa(lp2098
Vearn
p2099
aa(lp2100
Vearn
p2101
aa(lp2102
Vearn
p2103
aa(lp2104
Vearn
p2105
aa(lp2106
Vgrain
p2107
aVcorn
p2108
aa(lp2109
Vinterest
p2110
aVcrude
p2111
aa(lp2112
Vearn
p2113
aa(lp2114
Vearn
p2115
aa(lp2116
Vearn
p2117
aa(lp2118
Vearn
p2119
aa(lp2120
Vship
p2121
aa(lp2122
Vgrain
p2123
aVcorn
p2124
aa(lp2125
Vinterest
p2126
aa(lp2127
Vship
p2128
aa(lp2129
Vcrude
p2130
aa(lp2131
Vship
p2132
aa(lp2133
Vship
p2134
aa(lp2135
Vearn
p2136
aa(lp2137
Vearn
p2138
aa(lp2139
Vearn
p2140
aa(lp2141
Vearn
p2142
aa(lp2143
Vinterest
p2144
aVmoney-fx
p2145
aa(lp2146
Vship
p2147
aa(lp2148
Vcrude
p2149
aa(lp2150
Vship
p2151
aa(lp2152
Vcrude
p2153
aa(lp2154
Vgrain
p2155
aa(lp2156
Vinterest
p2157
aa(lp2158
Vtrade
p2159
aa(lp2160
Vmoney-fx
p2161
aa(lp2162
Vmoney-fx
p2163
aVinterest
p2164
aa(lp2165
Vcrude
p2166
aa(lp2167
Vmoney-fx
p2168
aa(lp2169
Vmoney-fx
p2170
aVinterest
p2171
aa(lp2172
Vcrude
p2173
aa(lp2174
Vinterest
p2175
aa(lp2176
Vinterest
p2177
aa(lp2178
Vearn
p2179
aa(lp2180
Vcrude
p2181
aa(lp2182
Vcrude
p2183
aVship
p2184
aa(lp2185
Vtrade
p2186
aa(lp2187
Vinterest
p2188
aVmoney-fx
p2189
aa(lp2190
Vearn
p2191
aa(lp2192
Vship
p2193
aa(lp2194
Vmoney-fx
p2195
aa(lp2196
Vearn
p2197
aa(lp2198
Vinterest
p2199
aa(lp2200
Vmoney-fx
p2201
aVinterest
p2202
aa(lp2203
Vship
p2204
aa(lp2205
Vship
p2206
aa(lp2207
Vcrude
p2208
aa(lp2209
Vmoney-fx
p2210
aVinterest
p2211
aa(lp2212
Vearn
p2213
aa(lp2214
Vtrade
p2215
aVmoney-fx
p2216
aVcrude
p2217
aa(lp2218
Vmoney-fx
p2219
aa(lp2220
Vmoney-fx
p2221
aVinterest
p2222
aa(lp2223
Vmoney-fx
p2224
aa(lp2225
Vearn
p2226
aa(lp2227
Vtrade
p2228
aa(lp2229
Vearn
p2230
aa(lp2231
Vgrain
p2232
aa(lp2233
Vgrain
p2234
aa(lp2235
Vinterest
p2236
aa(lp2237
Vinterest
p2238
aa(lp2239
Vearn
p2240
aa(lp2241
Vinterest
p2242
aa(lp2243
Vinterest
p2244
aa(lp2245
Vship
p2246
aa(lp2247
Vinterest
p2248
aa(lp2249
Vcrude
p2250
aa(lp2251
Vearn
p2252
aa(lp2253
Vearn
p2254
aa(lp2255
Vmoney-fx
p2256
aVinterest
p2257
aa(lp2258
Vinterest
p2259
aa(lp2260
Vinterest
p2261
aa(lp2262
Vinterest
p2263
aa(lp2264
Vgrain
p2265
aVwheat
p2266
aa(lp2267
Vinterest
p2268
aa(lp2269
Vinterest
p2270
aa(lp2271
Vmoney-fx
p2272
aVinterest
p2273
aa(lp2274
Vgrain
p2275
aVwheat
p2276
aVcorn
p2277
aa(lp2278
Vcrude
p2279
aa(lp2280
Vcrude
p2281
aa(lp2282
Vmoney-fx
p2283
aa(lp2284
Vearn
p2285
aa(lp2286
Vcrude
p2287
aa(lp2288
Vinterest
p2289
aVmoney-fx
p2290
aa(lp2291
Vcrude
p2292
aa(lp2293
Vcrude
p2294
aa(lp2295
Vcrude
p2296
aa(lp2297
Vgrain
p2298
aVcorn
p2299
aa(lp2300
Vinterest
p2301
aa(lp2302
Vearn
p2303
aa(lp2304
Vtrade
p2305
aa(lp2306
Vcrude
p2307
aa(lp2308
Vship
p2309
aa(lp2310
Vinterest
p2311
aa(lp2312
Vmoney-fx
p2313
aa(lp2314
Vearn
p2315
aa(lp2316
Vearn
p2317
aa(lp2318
Vearn
p2319
aa(lp2320
Vinterest
p2321
aa(lp2322
Vearn
p2323
aa(lp2324
Vship
p2325
aa(lp2326
Vearn
p2327
aa(lp2328
Vship
p2329
aa(lp2330
Vmoney-fx
p2331
aVtrade
p2332
aa(lp2333
Vearn
p2334
aa(lp2335
Vearn
p2336
aa(lp2337
Vgrain
p2338
aVwheat
p2339
aa(lp2340
Vearn
p2341
aa(lp2342
Vearn
p2343
aa(lp2344
Vgrain
p2345
aVcorn
p2346
aVwheat
p2347
aa(lp2348
Vinterest
p2349
aa(lp2350
Vship
p2351
aa(lp2352
Vmoney-fx
p2353
aVinterest
p2354
aa(lp2355
Vgrain
p2356
aVcorn
p2357
aVwheat
p2358
aa(lp2359
Vcrude
p2360
aa(lp2361
Vgrain
p2362
aVcorn
p2363
aa(lp2364
Vgrain
p2365
aa(lp2366
Vgrain
p2367
aa(lp2368
Vgrain
p2369
aVwheat
p2370
aa(lp2371
Vgrain
p2372
aVwheat
p2373
aa(lp2374
Vgrain
p2375
aa(lp2376
Vship
p2377
aa(lp2378
Vgrain
p2379
aVwheat
p2380
aVcorn
p2381
aa(lp2382
Vcrude
p2383
aa(lp2384
Vgrain
p2385
aVwheat
p2386
aa(lp2387
Vgrain
p2388
aVwheat
p2389
aa(lp2390
Vgrain
p2391
aVcorn
p2392
aa(lp2393
Vtrade
p2394
aVmoney-fx
p2395
aa(lp2396
Vcrude
p2397
aa(lp2398
Vearn
p2399
aa(lp2400
Vearn
p2401
aa(lp2402
Vship
p2403
aa(lp2404
Vship
p2405
aa(lp2406
Vcrude
p2407
aa(lp2408
Vgrain
p2409
aVcorn
p2410
aVwheat
p2411
aa(lp2412
Vearn
p2413
aa(lp2414
Vinterest
p2415
aa(lp2416
Vcrude
p2417
aa(lp2418
Vinterest
p2419
aa(lp2420
Vinterest
p2421
aa(lp2422
Vearn
p2423
aa(lp2424
Vearn
p2425
aa(lp2426
Vgrain
p2427
aVship
p2428
aa(lp2429
Vcrude
p2430
aa(lp2431
Vgrain
p2432
aa(lp2433
Vgrain
p2434
aVwheat
p2435
aVcorn
p2436
aa(lp2437
Vearn
p2438
aa(lp2439
Vmoney-fx
p2440
aa(lp2441
Vmoney-fx
p2442
aa(lp2443
Vearn
p2444
aa(lp2445
Vmoney-fx
p2446
aa(lp2447
Vgrain
p2448
aVcorn
p2449
aVwheat
p2450
aa(lp2451
Vcrude
p2452
aa(lp2453
Vmoney-fx
p2454
aa(lp2455
Vmoney-fx
p2456
aa(lp2457
Vship
p2458
aa(lp2459
Vtrade
p2460
aa(lp2461
Vmoney-fx
p2462
aa(lp2463
Vgrain
p2464
aVwheat
p2465
aa(lp2466
Vtrade
p2467
aa(lp2468
Vinterest
p2469
aa(lp2470
Vinterest
p2471
aa(lp2472
Vcrude
p2473
aa(lp2474
Vcrude
p2475
aa(lp2476
Vearn
p2477
aa(lp2478
Vmoney-fx
p2479
aa(lp2480
Vearn
p2481
aa(lp2482
Vearn
p2483
aa(lp2484
Vearn
p2485
aa(lp2486
Vship
p2487
aa(lp2488
Vearn
p2489
aa(lp2490
Vearn
p2491
aa(lp2492
Vearn
p2493
aa(lp2494
Vearn
p2495
aa(lp2496
Vmoney-fx
p2497
aa(lp2498
Vmoney-fx
p2499
aa(lp2500
Vearn
p2501
aa(lp2502
Vearn
p2503
aa(lp2504
Vinterest
p2505
aVmoney-fx
p2506
aa(lp2507
Vearn
p2508
aa(lp2509
Vinterest
p2510
aa(lp2511
Vearn
p2512
aa(lp2513
Vcrude
p2514
aa(lp2515
Vcrude
p2516
aa(lp2517
Vtrade
p2518
aa(lp2519
Vmoney-fx
p2520
aa(lp2521
Vearn
p2522
aa(lp2523
Vinterest
p2524
aa(lp2525
Vmoney-fx
p2526
aa(lp2527
Vinterest
p2528
aa(lp2529
Vmoney-fx
p2530
aVtrade
p2531
aa(lp2532
Vmoney-fx
p2533
aa(lp2534
Vinterest
p2535
aa(lp2536
Vmoney-fx
p2537
aa(lp2538
Vearn
p2539
aa(lp2540
Vinterest
p2541
aa(lp2542
Vinterest
p2543
aa(lp2544
Vearn
p2545
aa(lp2546
Vearn
p2547
aa(lp2548
Vtrade
p2549
aa(lp2550
Vmoney-fx
p2551
aa(lp2552
Vcrude
p2553
aa(lp2554
Vearn
p2555
aa(lp2556
Vcrude
p2557
aa(lp2558
Vearn
p2559
aa(lp2560
Vearn
p2561
aa(lp2562
Vcrude
p2563
aa(lp2564
Vship
p2565
aa(lp2566
Vearn
p2567
aa(lp2568
Vearn
p2569
aa(lp2570
Vearn
p2571
aa(lp2572
Vearn
p2573
aa(lp2574
Vearn
p2575
aa(lp2576
Vmoney-fx
p2577
aa(lp2578
Vearn
p2579
aa(lp2580
Vcrude
p2581
aa(lp2582
Vtrade
p2583
aVmoney-fx
p2584
aa(lp2585
Vcrude
p2586
aa(lp2587
Vearn
p2588
aa(lp2589
Vearn
p2590
aa(lp2591
Vearn
p2592
aa(lp2593
Vearn
p2594
aa(lp2595
Vearn
p2596
aa(lp2597
Vearn
p2598
aa(lp2599
Vearn
p2600
aa(lp2601
Vcrude
p2602
aa(lp2603
Vtrade
p2604
aa(lp2605
Vmoney-fx
p2606
aa(lp2607
Vearn
p2608
aa(lp2609
Vtrade
p2610
aa(lp2611
Vearn
p2612
aa(lp2613
Vearn
p2614
aa(lp2615
Vearn
p2616
aa(lp2617
Vearn
p2618
aa(lp2619
Vearn
p2620
aa(lp2621
Vearn
p2622
aa(lp2623
Vearn
p2624
aa(lp2625
Vearn
p2626
aa(lp2627
Vearn
p2628
aa(lp2629
Vearn
p2630
aa(lp2631
Vearn
p2632
aa(lp2633
Vearn
p2634
aa(lp2635
Vearn
p2636
aa(lp2637
Vearn
p2638
aa(lp2639
Vearn
p2640
aa(lp2641
Vmoney-fx
p2642
aa(lp2643
Vearn
p2644
aa(lp2645
Vearn
p2646
aa(lp2647
Vearn
p2648
aa(lp2649
Vearn
p2650
aa(lp2651
Vearn
p2652
aa(lp2653
Vearn
p2654
aa(lp2655
Vearn
p2656
aa(lp2657
Vearn
p2658
aa(lp2659
Vearn
p2660
aa(lp2661
Vtrade
p2662
aa(lp2663
Vmoney-fx
p2664
aa(lp2665
Vearn
p2666
aa(lp2667
Vearn
p2668
aa(lp2669
Vearn
p2670
aa(lp2671
Vinterest
p2672
aa(lp2673
Vearn
p2674
aa(lp2675
Vearn
p2676
aa(lp2677
Vmoney-fx
p2678
aa(lp2679
Vearn
p2680
aa(lp2681
Vearn
p2682
aa(lp2683
Vmoney-fx
p2684
aa(lp2685
Vgrain
p2686
aVwheat
p2687
aa(lp2688
Vearn
p2689
aa(lp2690
Vearn
p2691
aa(lp2692
Vearn
p2693
aa(lp2694
Vearn
p2695
aa(lp2696
Vearn
p2697
aa(lp2698
Vearn
p2699
aa(lp2700
Vearn
p2701
aa(lp2702
Vearn
p2703
aa(lp2704
Vearn
p2705
aa(lp2706
Vinterest
p2707
aa(lp2708
Vearn
p2709
aa(lp2710
Vearn
p2711
aa(lp2712
Vearn
p2713
aa(lp2714
Vearn
p2715
aa(lp2716
Vtrade
p2717
aa(lp2718
Vearn
p2719
aa(lp2720
Vearn
p2721
aa(lp2722
Vearn
p2723
aa(lp2724
Vearn
p2725
aa(lp2726
Vearn
p2727
aa(lp2728
Vearn
p2729
aa(lp2730
Vearn
p2731
aa(lp2732
Vearn
p2733
aa(lp2734
Vearn
p2735
aa(lp2736
Vearn
p2737
aa(lp2738
Vship
p2739
aa(lp2740
Vcrude
p2741
aa(lp2742
Vearn
p2743
aa(lp2744
Vearn
p2745
aa(lp2746
Vearn
p2747
aa(lp2748
Vearn
p2749
aa(lp2750
Vearn
p2751
aa(lp2752
Vinterest
p2753
aa(lp2754
Vship
p2755
aa(lp2756
Vearn
p2757
aa(lp2758
Vearn
p2759
aa(lp2760
Vearn
p2761
aa(lp2762
Vcrude
p2763
aa(lp2764
Vearn
p2765
aa(lp2766
Vgrain
p2767
aVcorn
p2768
aa(lp2769
Vearn
p2770
aa(lp2771
Vearn
p2772
aa(lp2773
Vearn
p2774
aa(lp2775
Vgrain
p2776
aVcorn
p2777
aa(lp2778
Vearn
p2779
aa(lp2780
Vearn
p2781
aa(lp2782
Vearn
p2783
aa(lp2784
Vearn
p2785
aa(lp2786
Vearn
p2787
aa(lp2788
Vcrude
p2789
aVship
p2790
aa(lp2791
Vearn
p2792
aa(lp2793
Vearn
p2794
aa(lp2795
Vearn
p2796
aa(lp2797
Vearn
p2798
aa(lp2799
Vgrain
p2800
aVcorn
p2801
aa(lp2802
Vearn
p2803
aa(lp2804
Vearn
p2805
aa(lp2806
Vearn
p2807
aa(lp2808
Vearn
p2809
aa(lp2810
Vearn
p2811
aa(lp2812
Vearn
p2813
aa(lp2814
Vgrain
p2815
aVwheat
p2816
aa(lp2817
Vearn
p2818
aa(lp2819
Vearn
p2820
aa(lp2821
Vtrade
p2822
aa(lp2823
Vearn
p2824
aa(lp2825
Vgrain
p2826
aVwheat
p2827
aa(lp2828
Vearn
p2829
aa(lp2830
Vcrude
p2831
aa(lp2832
Vearn
p2833
aa(lp2834
Vearn
p2835
aa(lp2836
Vgrain
p2837
aVwheat
p2838
aa(lp2839
Vearn
p2840
aa(lp2841
Vearn
p2842
aa(lp2843
Vtrade
p2844
aa(lp2845
Vearn
p2846
aa(lp2847
Vearn
p2848
aa(lp2849
Vearn
p2850
aa(lp2851
Vgrain
p2852
aVcorn
p2853
aa(lp2854
Vearn
p2855
aa(lp2856
Vearn
p2857
aa(lp2858
Vearn
p2859
aa(lp2860
Vship
p2861
aa(lp2862
Vearn
p2863
aa(lp2864
Vcrude
p2865
aa(lp2866
Vearn
p2867
aa(lp2868
Vearn
p2869
aa(lp2870
Vship
p2871
aa(lp2872
Vcrude
p2873
aa(lp2874
Vearn
p2875
aa(lp2876
Vgrain
p2877
aVcorn
p2878
aa(lp2879
Vcrude
p2880
aa(lp2881
Vgrain
p2882
aVcorn
p2883
aa(lp2884
Vinterest
p2885
aa(lp2886
Vcrude
p2887
aa(lp2888
Vearn
p2889
aa(lp2890
Vearn
p2891
aa(lp2892
Vcrude
p2893
aa(lp2894
Vearn
p2895
aa(lp2896
Vearn
p2897
aa(lp2898
Vinterest
p2899
aa(lp2900
Vearn
p2901
aa(lp2902
Vearn
p2903
aa(lp2904
Vearn
p2905
aa(lp2906
Vcrude
p2907
aa(lp2908
Vearn
p2909
aa(lp2910
Vearn
p2911
aa(lp2912
Vearn
p2913
aa(lp2914
Vearn
p2915
aa(lp2916
Vtrade
p2917
aa(lp2918
Vtrade
p2919
aa(lp2920
Vcrude
p2921
aa(lp2922
Vearn
p2923
aa(lp2924
Vtrade
p2925
aa(lp2926
Vmoney-fx
p2927
aa(lp2928
Vcrude
p2929
aa(lp2930
Vcrude
p2931
aa(lp2932
Vgrain
p2933
aVcorn
p2934
aa(lp2935
Vtrade
p2936
aa(lp2937
Vship
p2938
aa(lp2939
Vship
p2940
aa(lp2941
Vgrain
p2942
aVwheat
p2943
aa(lp2944
Vship
p2945
aa(lp2946
Vearn
p2947
aa(lp2948
Vearn
p2949
aa(lp2950
Vearn
p2951
aa(lp2952
Vearn
p2953
aa(lp2954
Vgrain
p2955
aVwheat
p2956
aa(lp2957
Vtrade
p2958
aa(lp2959
Vearn
p2960
aa(lp2961
Vtrade
p2962
aa(lp2963
Vearn
p2964
aa(lp2965
Vearn
p2966
aa(lp2967
Vmoney-fx
p2968
aa(lp2969
Vearn
p2970
aa(lp2971
Vmoney-fx
p2972
aVinterest
p2973
aa(lp2974
Vearn
p2975
aa(lp2976
Vmoney-fx
p2977
aa(lp2978
Vearn
p2979
aa(lp2980
Vearn
p2981
aa(lp2982
Vearn
p2983
aa(lp2984
Vearn
p2985
aa(lp2986
Vearn
p2987
aa(lp2988
Vearn
p2989
aa(lp2990
Vearn
p2991
aa(lp2992
Vtrade
p2993
aa(lp2994
Vtrade
p2995
aa(lp2996
Vearn
p2997
aa(lp2998
Vearn
p2999
aa(lp3000
Vcrude
p3001
aa(lp3002
Vcrude
p3003
aa(lp3004
Vmoney-fx
p3005
aVinterest
p3006
aa(lp3007
Vearn
p3008
aa(lp3009
Vgrain
p3010
aVcorn
p3011
aa(lp3012
Vmoney-fx
p3013
aa(lp3014
Vearn
p3015
aa(lp3016
Vearn
p3017
aa(lp3018
Vearn
p3019
aa(lp3020
Vearn
p3021
aa(lp3022
Vearn
p3023
aa(lp3024
Vearn
p3025
aa(lp3026
Vtrade
p3027
aa(lp3028
Vearn
p3029
aa(lp3030
Vtrade
p3031
aa(lp3032
Vearn
p3033
aa(lp3034
Vcrude
p3035
aa(lp3036
Vearn
p3037
aa(lp3038
Vmoney-fx
p3039
aa(lp3040
Vship
p3041
aVcrude
p3042
aa(lp3043
Vtrade
p3044
aa(lp3045
Vcrude
p3046
aa(lp3047
Vearn
p3048
aa(lp3049
Vearn
p3050
aa(lp3051
Vearn
p3052
aa(lp3053
Vearn
p3054
aa(lp3055
Vearn
p3056
aa(lp3057
Vearn
p3058
aa(lp3059
Vmoney-fx
p3060
aVinterest
p3061
aa(lp3062
Vearn
p3063
aa(lp3064
Vearn
p3065
aa(lp3066
Vearn
p3067
aa(lp3068
Vearn
p3069
aa(lp3070
Vgrain
p3071
aVwheat
p3072
aVship
p3073
aa(lp3074
Vearn
p3075
aa(lp3076
Vship
p3077
aa(lp3078
Vearn
p3079
aa(lp3080
Vearn
p3081
aa(lp3082
Vearn
p3083
aa(lp3084
Vearn
p3085
aa(lp3086
Vearn
p3087
aa(lp3088
Vearn
p3089
aa(lp3090
Vearn
p3091
aa(lp3092
Vearn
p3093
aVcrude
p3094
aa(lp3095
Vtrade
p3096
aa(lp3097
Vearn
p3098
aa(lp3099
Vearn
p3100
aa(lp3101
Vearn
p3102
aa(lp3103
Vearn
p3104
aa(lp3105
Vcrude
p3106
aa(lp3107
Vearn
p3108
aa(lp3109
Vearn
p3110
aa(lp3111
Vearn
p3112
aa(lp3113
Vtrade
p3114
aa(lp3115
Vearn
p3116
aa(lp3117
Vearn
p3118
aa(lp3119
Vearn
p3120
aa(lp3121
Vmoney-fx
p3122
aVinterest
p3123
aa(lp3124
Vearn
p3125
aa(lp3126
Vgrain
p3127
aVwheat
p3128
aa(lp3129
Vearn
p3130
aa(lp3131
Vgrain
p3132
aa(lp3133
Vearn
p3134
aa(lp3135
Vearn
p3136
aa(lp3137
Vearn
p3138
aa(lp3139
Vgrain
p3140
aVcorn
p3141
aa(lp3142
Vearn
p3143
aa(lp3144
Vearn
p3145
aa(lp3146
Vmoney-fx
p3147
aa(lp3148
Vgrain
p3149
aVwheat
p3150
aVcorn
p3151
aa(lp3152
Vmoney-fx
p3153
aVinterest
p3154
aa(lp3155
Vearn
p3156
aa(lp3157
Vearn
p3158
aa(lp3159
Vearn
p3160
aa(lp3161
Vearn
p3162
aa(lp3163
Vgrain
p3164
aa(lp3165
Vcrude
p3166
aa(lp3167
Vearn
p3168
aa(lp3169
Vearn
p3170
aa(lp3171
Vship
p3172
aa(lp3173
Vearn
p3174
aa(lp3175
Vearn
p3176
aa(lp3177
Vcrude
p3178
aa(lp3179
Vearn
p3180
aa(lp3181
Vearn
p3182
aa(lp3183
Vcrude
p3184
aa(lp3185
Vearn
p3186
aa(lp3187
Vearn
p3188
aa(lp3189
Vship
p3190
aa(lp3191
Vearn
p3192
aa(lp3193
Vearn
p3194
aa(lp3195
Vearn
p3196
aa(lp3197
Vearn
p3198
aa(lp3199
Vgrain
p3200
aVwheat
p3201
aa(lp3202
Vearn
p3203
aa(lp3204
Vearn
p3205
aa(lp3206
Vearn
p3207
aa(lp3208
Vearn
p3209
aa(lp3210
Vearn
p3211
aa(lp3212
Vcrude
p3213
aa(lp3214
Vcrude
p3215
aa(lp3216
Vearn
p3217
aa(lp3218
Vearn
p3219
aa(lp3220
Vearn
p3221
aa(lp3222
Vearn
p3223
aa(lp3224
Vearn
p3225
aa(lp3226
Vearn
p3227
aa(lp3228
Vgrain
p3229
aVcorn
p3230
aVwheat
p3231
aa(lp3232
Vearn
p3233
aa(lp3234
Vearn
p3235
aa(lp3236
Vcrude
p3237
aa(lp3238
Vearn
p3239
aa(lp3240
Vearn
p3241
aa(lp3242
Vearn
p3243
aa(lp3244
Vearn
p3245
aa(lp3246
Vearn
p3247
aa(lp3248
Vearn
p3249
aa(lp3250
Vearn
p3251
aa(lp3252
Vinterest
p3253
aa(lp3254
Vearn
p3255
aa(lp3256
Vearn
p3257
aa(lp3258
Vearn
p3259
aa(lp3260
Vearn
p3261
aa(lp3262
Vcrude
p3263
aa(lp3264
Vcrude
p3265
aa(lp3266
Vearn
p3267
aa(lp3268
Vearn
p3269
aa(lp3270
Vearn
p3271
aa(lp3272
Vearn
p3273
aa(lp3274
Vearn
p3275
aa(lp3276
Vcrude
p3277
aa(lp3278
Vearn
p3279
aa(lp3280
Vinterest
p3281
aa(lp3282
Vearn
p3283
aa(lp3284
Vearn
p3285
aa(lp3286
Vcrude
p3287
aa(lp3288
Vearn
p3289
aa(lp3290
Vinterest
p3291
aa(lp3292
Vearn
p3293
aa(lp3294
Vinterest
p3295
aa(lp3296
Vearn
p3297
aa(lp3298
Vearn
p3299
aa(lp3300
Vcrude
p3301
aa(lp3302
Vcrude
p3303
aa(lp3304
Vcrude
p3305
aa(lp3306
Vearn
p3307
aa(lp3308
Vearn
p3309
aa(lp3310
Vgrain
p3311
aVwheat
p3312
aa(lp3313
Vcrude
p3314
aa(lp3315
Vearn
p3316
aa(lp3317
Vearn
p3318
aa(lp3319
Vgrain
p3320
aVwheat
p3321
aa(lp3322
Vtrade
p3323
aa(lp3324
Vcrude
p3325
aa(lp3326
Vinterest
p3327
aa(lp3328
Vinterest
p3329
aa(lp3330
Vgrain
p3331
aVwheat
p3332
aVcorn
p3333
aa(lp3334
Vearn
p3335
aa(lp3336
Vearn
p3337
aa(lp3338
Vinterest
p3339
aa(lp3340
Vearn
p3341
aa(lp3342
Vearn
p3343
aa(lp3344
Vtrade
p3345
aa(lp3346
Vtrade
p3347
aa(lp3348
Vearn
p3349
aa(lp3350
Vearn
p3351
aa(lp3352
Vearn
p3353
aa(lp3354
Vgrain
p3355
aa(lp3356
Vcrude
p3357
aa(lp3358
Vgrain
p3359
aVwheat
p3360
aa(lp3361
Vearn
p3362
aa(lp3363
Vtrade
p3364
aa(lp3365
Vearn
p3366
aa(lp3367
Vcrude
p3368
aa(lp3369
Vearn
p3370
aa(lp3371
Vearn
p3372
aa(lp3373
Vcrude
p3374
aa(lp3375
Vearn
p3376
aa(lp3377
Vcrude
p3378
aa(lp3379
Vcrude
p3380
aa(lp3381
Vearn
p3382
aa(lp3383
Vearn
p3384
aa(lp3385
Vcrude
p3386
aa(lp3387
Vearn
p3388
aa(lp3389
Vcrude
p3390
aa(lp3391
Vcrude
p3392
aa(lp3393
Vtrade
p3394
aa(lp3395
Vgrain
p3396
aVwheat
p3397
aVcorn
p3398
aa(lp3399
Vcrude
p3400
aa(lp3401
Vinterest
p3402
aa(lp3403
Vcrude
p3404
aa(lp3405
Vcrude
p3406
aa(lp3407
Vearn
p3408
aa(lp3409
Vearn
p3410
aa(lp3411
Vmoney-fx
p3412
aa(lp3413
Vship
p3414
aa(lp3415
Vearn
p3416
aa(lp3417
Vearn
p3418
aa(lp3419
Vtrade
p3420
aa(lp3421
Vtrade
p3422
aa(lp3423
Vmoney-fx
p3424
aa(lp3425
Vtrade
p3426
aa(lp3427
Vgrain
p3428
aa(lp3429
Vtrade
p3430
aa(lp3431
Vship
p3432
aa(lp3433
Vearn
p3434
aa(lp3435
Vearn
p3436
aa(lp3437
Vearn
p3438
aa(lp3439
Vtrade
p3440
aa(lp3441
Vinterest
p3442
aa(lp3443
Vearn
p3444
aa(lp3445
Vcrude
p3446
aa(lp3447
Vcrude
p3448
aa(lp3449
Vcrude
p3450
aa(lp3451
Vmoney-fx
p3452
aa(lp3453
Vgrain
p3454
aVwheat
p3455
aa(lp3456
Vmoney-fx
p3457
aa(lp3458
Vgrain
p3459
aa(lp3460
Vmoney-fx
p3461
aa(lp3462
Vmoney-fx
p3463
aVinterest
p3464
aa(lp3465
Vearn
p3466
aa(lp3467
Vcrude
p3468
aa(lp3469
Vearn
p3470
aa(lp3471
Vearn
p3472
aa(lp3473
Vearn
p3474
aa(lp3475
Vgrain
p3476
aVwheat
p3477
aa(lp3478
Vmoney-fx
p3479
aa(lp3480
Vmoney-fx
p3481
aa(lp3482
Vship
p3483
aa(lp3484
Vmoney-fx
p3485
aa(lp3486
Vcrude
p3487
aa(lp3488
Vcrude
p3489
aa(lp3490
Vtrade
p3491
aa(lp3492
Vgrain
p3493
aa(lp3494
Vmoney-fx
p3495
aVinterest
p3496
aa(lp3497
Vearn
p3498
aa(lp3499
Vearn
p3500
aa(lp3501
Vship
p3502
aa(lp3503
Vship
p3504
aa(lp3505
Vship
p3506
aa(lp3507
Vcrude
p3508
aa(lp3509
Vearn
p3510
aa(lp3511
Vearn
p3512
aa(lp3513
Vearn
p3514
aa(lp3515
Vearn
p3516
aa(lp3517
Vearn
p3518
aa(lp3519
Vearn
p3520
aa(lp3521
Vinterest
p3522
aa(lp3523
Vearn
p3524
aa(lp3525
Vmoney-fx
p3526
aa(lp3527
Vearn
p3528
aa(lp3529
Vearn
p3530
aa(lp3531
Vearn
p3532
aa(lp3533
Vearn
p3534
aa(lp3535
Vship
p3536
aVgrain
p3537
aa(lp3538
Vearn
p3539
aa(lp3540
Vearn
p3541
aa(lp3542
Vship
p3543
aa(lp3544
Vearn
p3545
aa(lp3546
Vmoney-fx
p3547
aVinterest
p3548
aa(lp3549
Vearn
p3550
aa(lp3551
Vearn
p3552
aa(lp3553
Vearn
p3554
aa(lp3555
Vearn
p3556
aa(lp3557
Vearn
p3558
aa(lp3559
Vearn
p3560
aa(lp3561
Vearn
p3562
aa(lp3563
Vearn
p3564
aa(lp3565
Vearn
p3566
aa(lp3567
Vearn
p3568
aa(lp3569
Vearn
p3570
aa(lp3571
Vmoney-fx
p3572
aa(lp3573
Vearn
p3574
aa(lp3575
Vearn
p3576
aa(lp3577
Vearn
p3578
aa(lp3579
Vearn
p3580
aa(lp3581
Vearn
p3582
aa(lp3583
Vmoney-fx
p3584
aVinterest
p3585
aa(lp3586
Vgrain
p3587
aVcorn
p3588
aa(lp3589
Vearn
p3590
aa(lp3591
Vmoney-fx
p3592
aa(lp3593
Vcrude
p3594
aa(lp3595
Vship
p3596
aa(lp3597
Vtrade
p3598
aa(lp3599
Vearn
p3600
aa(lp3601
Vship
p3602
aa(lp3603
Vcrude
p3604
aa(lp3605
Vcrude
p3606
aa(lp3607
Vinterest
p3608
aa(lp3609
Vmoney-fx
p3610
aa(lp3611
Vearn
p3612
aa(lp3613
Vearn
p3614
aa(lp3615
Vearn
p3616
aa(lp3617
Vtrade
p3618
aa(lp3619
Vgrain
p3620
aVcorn
p3621
aa(lp3622
Vearn
p3623
aa(lp3624
Vearn
p3625
aa(lp3626
Vearn
p3627
aa(lp3628
Vearn
p3629
aa(lp3630
Vinterest
p3631
aa(lp3632
Vearn
p3633
aa(lp3634
Vearn
p3635
aa(lp3636
Vgrain
p3637
aVcorn
p3638
aa(lp3639
Vinterest
p3640
aa(lp3641
Vcrude
p3642
aa(lp3643
Vcrude
p3644
aVship
p3645
aa(lp3646
Vearn
p3647
aa(lp3648
Vearn
p3649
aa(lp3650
Vearn
p3651
aa(lp3652
Vcrude
p3653
aa(lp3654
Vearn
p3655
aa(lp3656
Vearn
p3657
aa(lp3658
Vcrude
p3659
aa(lp3660
Vtrade
p3661
aa(lp3662
Vgrain
p3663
aVcorn
p3664
aa(lp3665
Vearn
p3666
aa(lp3667
Vearn
p3668
aa(lp3669
Vearn
p3670
aa(lp3671
Vearn
p3672
aa(lp3673
Vgrain
p3674
aVcorn
p3675
aa(lp3676
Vearn
p3677
aa(lp3678
Vearn
p3679
aa(lp3680
Vearn
p3681
aa(lp3682
Vgrain
p3683
aVcorn
p3684
aa(lp3685
Vearn
p3686
aa(lp3687
Vearn
p3688
aa(lp3689
Vearn
p3690
aa(lp3691
Vgrain
p3692
aVcorn
p3693
aa(lp3694
Vearn
p3695
aa(lp3696
Vcrude
p3697
aa(lp3698
Vearn
p3699
aa(lp3700
Vearn
p3701
aa(lp3702
Vearn
p3703
aa(lp3704
Vearn
p3705
aa(lp3706
Vearn
p3707
aa(lp3708
Vearn
p3709
aa(lp3710
Vearn
p3711
aa(lp3712
Vearn
p3713
aa(lp3714
Vearn
p3715
aa(lp3716
Vgrain
p3717
aVwheat
p3718
aa(lp3719
Vtrade
p3720
aa(lp3721
Vearn
p3722
aa(lp3723
Vcrude
p3724
aa(lp3725
Vearn
p3726
aa(lp3727
Vearn
p3728
aa(lp3729
Vmoney-fx
p3730
aa(lp3731
Vearn
p3732
aa(lp3733
Vearn
p3734
aa(lp3735
Vearn
p3736
aa(lp3737
Vearn
p3738
aa(lp3739
Vearn
p3740
aa(lp3741
Vearn
p3742
aa(lp3743
Vearn
p3744
aa(lp3745
Vearn
p3746
aa(lp3747
Vearn
p3748
aa(lp3749
Vearn
p3750
aa(lp3751
Vearn
p3752
aa(lp3753
Vearn
p3754
aa(lp3755
Vearn
p3756
aa(lp3757
Vearn
p3758
aa(lp3759
Vgrain
p3760
aVcorn
p3761
aa(lp3762
Vearn
p3763
aa(lp3764
Vcrude
p3765
aa(lp3766
Vcrude
p3767
aa(lp3768
Vcrude
p3769
aa(lp3770
Vcrude
p3771
aa(lp3772
Vcrude
p3773
aa(lp3774
Vearn
p3775
aa(lp3776
Vinterest
p3777
aa(lp3778
Vearn
p3779
aa(lp3780
Vtrade
p3781
aa(lp3782
Vcrude
p3783
aa(lp3784
Vship
p3785
aa(lp3786
Vcrude
p3787
aVship
p3788
aa(lp3789
Vtrade
p3790
aa(lp3791
Vcrude
p3792
aa(lp3793
Vcrude
p3794
aa(lp3795
Vtrade
p3796
aa(lp3797
Vcrude
p3798
aa(lp3799
Vearn
p3800
aa(lp3801
Vmoney-fx
p3802
aa(lp3803
Vmoney-fx
p3804
aa(lp3805
Vmoney-fx
p3806
aa(lp3807
Vgrain
p3808
aVcorn
p3809
aa(lp3810
Vearn
p3811
aa(lp3812
Vtrade
p3813
aa(lp3814
Vmoney-fx
p3815
aa(lp3816
Vship
p3817
aa(lp3818
Vmoney-fx
p3819
aa(lp3820
Vmoney-fx
p3821
aa(lp3822
Vmoney-fx
p3823
aa(lp3824
Vmoney-fx
p3825
aa(lp3826
Vearn
p3827
aa(lp3828
Vearn
p3829
aa(lp3830
Vtrade
p3831
aa(lp3832
Vearn
p3833
aa(lp3834
Vmoney-fx
p3835
aa(lp3836
Vearn
p3837
aa(lp3838
Vmoney-fx
p3839
aVinterest
p3840
aa(lp3841
Vinterest
p3842
aa(lp3843
Vtrade
p3844
aa(lp3845
Vinterest
p3846
aa(lp3847
Vmoney-fx
p3848
aVinterest
p3849
aa(lp3850
Vcrude
p3851
aa(lp3852
Vearn
p3853
aa(lp3854
Vearn
p3855
aa(lp3856
Vearn
p3857
aa(lp3858
Vgrain
p3859
aa(lp3860
Vcrude
p3861
aa(lp3862
Vmoney-fx
p3863
aa(lp3864
Vcrude
p3865
aa(lp3866
Vmoney-fx
p3867
aa(lp3868
Vcrude
p3869
aa(lp3870
Vtrade
p3871
aa(lp3872
Vearn
p3873
aa(lp3874
Vmoney-fx
p3875
aVinterest
p3876
aa(lp3877
Vtrade
p3878
aa(lp3879
Vmoney-fx
p3880
aa(lp3881
Vmoney-fx
p3882
aVtrade
p3883
aa(lp3884
Vcrude
p3885
aa(lp3886
Vearn
p3887
aa(lp3888
Vtrade
p3889
aa(lp3890
Vtrade
p3891
aa(lp3892
Vmoney-fx
p3893
aVinterest
p3894
aa(lp3895
Vship
p3896
aa(lp3897
Vearn
p3898
aa(lp3899
Vearn
p3900
aa(lp3901
Vearn
p3902
aa(lp3903
Vearn
p3904
aa(lp3905
Vearn
p3906
aa(lp3907
Vearn
p3908
aa(lp3909
Vearn
p3910
aa(lp3911
Vearn
p3912
aa(lp3913
Vearn
p3914
aa(lp3915
Vearn
p3916
aa(lp3917
Vearn
p3918
aa(lp3919
Vearn
p3920
aa(lp3921
Vearn
p3922
aa(lp3923
Vearn
p3924
aa(lp3925
Vship
p3926
aa(lp3927
Vmoney-fx
p3928
aVinterest
p3929
aa(lp3930
Vmoney-fx
p3931
aVgrain
p3932
aVcorn
p3933
aa(lp3934
Vearn
p3935
aa(lp3936
Vearn
p3937
aa(lp3938
Vmoney-fx
p3939
aVinterest
p3940
aa(lp3941
Vearn
p3942
aa(lp3943
Vearn
p3944
aa(lp3945
Vearn
p3946
aa(lp3947
Vearn
p3948
aa(lp3949
Vearn
p3950
aa(lp3951
Vearn
p3952
aa(lp3953
Vearn
p3954
aa(lp3955
Vearn
p3956
aa(lp3957
Vmoney-fx
p3958
aa(lp3959
Vgrain
p3960
aa(lp3961
Vearn
p3962
aa(lp3963
Vearn
p3964
aa(lp3965
Vtrade
p3966
aa(lp3967
Vtrade
p3968
aa(lp3969
Vearn
p3970
aa(lp3971
Vgrain
p3972
aVwheat
p3973
aa(lp3974
Vearn
p3975
aa(lp3976
Vearn
p3977
aa(lp3978
Vmoney-fx
p3979
aa(lp3980
Vearn
p3981
aa(lp3982
Vmoney-fx
p3983
aVinterest
p3984
aa(lp3985
Vearn
p3986
aa(lp3987
Vgrain
p3988
aa(lp3989
Vearn
p3990
aa(lp3991
Vmoney-fx
p3992
aa(lp3993
Vearn
p3994
aa(lp3995
Vearn
p3996
aa(lp3997
Vearn
p3998
aa(lp3999
Vearn
p4000
aa(lp4001
Vearn
p4002
aa(lp4003
Vearn
p4004
aa(lp4005
Vearn
p4006
aa(lp4007
Vearn
p4008
aa(lp4009
Vearn
p4010
aa(lp4011
Vmoney-fx
p4012
aa(lp4013
Vearn
p4014
aa(lp4015
Vearn
p4016
aa(lp4017
Vmoney-fx
p4018
aVinterest
p4019
aa(lp4020
Vearn
p4021
aa(lp4022
Vearn
p4023
aa(lp4024
Vearn
p4025
aa(lp4026
Vearn
p4027
aa(lp4028
Vearn
p4029
aa(lp4030
Vearn
p4031
aa(lp4032
Vearn
p4033
aa(lp4034
Vtrade
p4035
aa(lp4036
Vearn
p4037
aa(lp4038
Vearn
p4039
aa(lp4040
Vgrain
p4041
aVwheat
p4042
aVcorn
p4043
aVcorn
p4044
aa(lp4045
Vearn
p4046
aa(lp4047
Vearn
p4048
aa(lp4049
Vearn
p4050
aa(lp4051
Vearn
p4052
aa(lp4053
Vtrade
p4054
aa(lp4055
Vearn
p4056
aa(lp4057
Vearn
p4058
aa(lp4059
Vearn
p4060
aa(lp4061
Vearn
p4062
aa(lp4063
Vearn
p4064
aa(lp4065
Vtrade
p4066
aa(lp4067
Vship
p4068
aa(lp4069
Vearn
p4070
aa(lp4071
Vearn
p4072
aa(lp4073
Vearn
p4074
aa(lp4075
Vtrade
p4076
aa(lp4077
Vtrade
p4078
aa(lp4079
Vearn
p4080
aa(lp4081
Vgrain
p4082
aVcorn
p4083
aa(lp4084
Vearn
p4085
aa(lp4086
Vearn
p4087
aa(lp4088
Vearn
p4089
aa(lp4090
Vearn
p4091
aa(lp4092
Vgrain
p4093
aVcorn
p4094
aVwheat
p4095
aa(lp4096
Vearn
p4097
aa(lp4098
Vearn
p4099
aa(lp4100
Vearn
p4101
aa(lp4102
Vearn
p4103
aa(lp4104
Vearn
p4105
aa(lp4106
Vtrade
p4107
aVship
p4108
aVcrude
p4109
aa(lp4110
Vearn
p4111
aa(lp4112
Vearn
p4113
aa(lp4114
Vearn
p4115
aa(lp4116
Vearn
p4117
aa(lp4118
Vearn
p4119
aa(lp4120
Vcrude
p4121
aVship
p4122
aa(lp4123
Vearn
p4124
aa(lp4125
Vearn
p4126
aa(lp4127
Vtrade
p4128
aa(lp4129
Vearn
p4130
aa(lp4131
Vearn
p4132
aa(lp4133
Vearn
p4134
aa(lp4135
Vearn
p4136
aa(lp4137
Vtrade
p4138
aa(lp4139
Vearn
p4140
aa(lp4141
Vearn
p4142
aa(lp4143
Vearn
p4144
aa(lp4145
Vearn
p4146
aa(lp4147
Vearn
p4148
aa(lp4149
Vearn
p4150
aa(lp4151
Vearn
p4152
aa(lp4153
Vearn
p4154
aa(lp4155
Vearn
p4156
aa(lp4157
Vearn
p4158
aa(lp4159
Vearn
p4160
aa(lp4161
Vearn
p4162
aa(lp4163
Vearn
p4164
aa(lp4165
Vearn
p4166
aa(lp4167
Vearn
p4168
aa(lp4169
Vearn
p4170
aa(lp4171
Vearn
p4172
aa(lp4173
Vearn
p4174
aa(lp4175
Vgrain
p4176
aVwheat
p4177
aVcorn
p4178
aa(lp4179
Vgrain
p4180
aVcorn
p4181
aVwheat
p4182
aa(lp4183
Vgrain
p4184
aa(lp4185
Vearn
p4186
aa(lp4187
Vearn
p4188
aa(lp4189
Vearn
p4190
aa(lp4191
Vearn
p4192
aa(lp4193
Vearn
p4194
aa(lp4195
Vship
p4196
aVcrude
p4197
aa(lp4198
Vearn
p4199
aa(lp4200
Vgrain
p4201
aVwheat
p4202
aVcorn
p4203
aa(lp4204
Vgrain
p4205
aVcorn
p4206
aa(lp4207
Vgrain
p4208
aVwheat
p4209
aa(lp4210
Vgrain
p4211
aa(lp4212
Vearn
p4213
aa(lp4214
Vearn
p4215
aa(lp4216
Vgrain
p4217
aVwheat
p4218
aa(lp4219
Vearn
p4220
aa(lp4221
Vearn
p4222
aa(lp4223
Vearn
p4224
aa(lp4225
Vearn
p4226
aa(lp4227
Vearn
p4228
aa(lp4229
Vearn
p4230
aa(lp4231
Vearn
p4232
aa(lp4233
Vearn
p4234
aa(lp4235
Vearn
p4236
aa(lp4237
Vearn
p4238
aa(lp4239
Vearn
p4240
aa(lp4241
Vearn
p4242
aa(lp4243
Vearn
p4244
aa(lp4245
Vcrude
p4246
aa(lp4247
Vtrade
p4248
aa(lp4249
Vearn
p4250
aa(lp4251
Vearn
p4252
aa(lp4253
Vearn
p4254
aa(lp4255
Vtrade
p4256
aa(lp4257
Vearn
p4258
aa(lp4259
Vearn
p4260
aa(lp4261
Vearn
p4262
aa(lp4263
Vearn
p4264
aa(lp4265
Vearn
p4266
aa(lp4267
Vearn
p4268
aa(lp4269
Vearn
p4270
aa(lp4271
Vtrade
p4272
aa(lp4273
Vearn
p4274
aa(lp4275
Vearn
p4276
aa(lp4277
Vearn
p4278
aa(lp4279
Vearn
p4280
aa(lp4281
Vearn
p4282
aa(lp4283
Vearn
p4284
aa(lp4285
Vearn
p4286
aa(lp4287
Vearn
p4288
aa(lp4289
Vearn
p4290
aa(lp4291
Vship
p4292
aa(lp4293
Vearn
p4294
aa(lp4295
Vearn
p4296
aa(lp4297
Vearn
p4298
aa(lp4299
Vearn
p4300
aa(lp4301
Vearn
p4302
aa(lp4303
Vearn
p4304
aa(lp4305
Vearn
p4306
aa(lp4307
Vearn
p4308
aa(lp4309
Vtrade
p4310
aa(lp4311
Vearn
p4312
aa(lp4313
Vmoney-fx
p4314
aa(lp4315
Vtrade
p4316
aVmoney-fx
p4317
aVinterest
p4318
aa(lp4319
Vtrade
p4320
aa(lp4321
Vtrade
p4322
aa(lp4323
Vearn
p4324
aa(lp4325
Vcrude
p4326
aa(lp4327
Vgrain
p4328
aa(lp4329
Vtrade
p4330
aa(lp4331
Vmoney-fx
p4332
aa(lp4333
Vmoney-fx
p4334
aVinterest
p4335
aa(lp4336
Vearn
p4337
aa(lp4338
Vship
p4339
aa(lp4340
Vmoney-fx
p4341
aa(lp4342
Vearn
p4343
aa(lp4344
Vgrain
p4345
aa(lp4346
Vinterest
p4347
aa(lp4348
Vmoney-fx
p4349
aa(lp4350
Vcorn
p4351
aVgrain
p4352
aa(lp4353
Vtrade
p4354
aa(lp4355
Vship
p4356
aVtrade
p4357
aVcrude
p4358
aa(lp4359
Vmoney-fx
p4360
aa(lp4361
Vmoney-fx
p4362
aVinterest
p4363
aa(lp4364
Vship
p4365
aVcrude
p4366
aa(lp4367
Vship
p4368
aa(lp4369
Vearn
p4370
aa(lp4371
Vtrade
p4372
aa(lp4373
Vearn
p4374
aa(lp4375
Vearn
p4376
aa(lp4377
Vmoney-fx
p4378
aa(lp4379
Vearn
p4380
aa(lp4381
Vtrade
p4382
aa(lp4383
Vmoney-fx
p4384
aa(lp4385
Vearn
p4386
aa(lp4387
Vearn
p4388
aa(lp4389
Vearn
p4390
aa(lp4391
Vearn
p4392
aa(lp4393
Vearn
p4394
aa(lp4395
Vearn
p4396
aa(lp4397
Vearn
p4398
aa(lp4399
Vearn
p4400
aa(lp4401
Vearn
p4402
aa(lp4403
Vgrain
p4404
aVcorn
p4405
aa(lp4406
Vearn
p4407
aa(lp4408
Vearn
p4409
aa(lp4410
Vtrade
p4411
aa(lp4412
Vtrade
p4413
aa(lp4414
Vmoney-fx
p4415
aa(lp4416
Vearn
p4417
aa(lp4418
Vearn
p4419
aa(lp4420
Vtrade
p4421
aa(lp4422
Vearn
p4423
aa(lp4424
Vtrade
p4425
aa(lp4426
Vearn
p4427
aa(lp4428
Vearn
p4429
aa(lp4430
Vearn
p4431
aa(lp4432
Vearn
p4433
aa(lp4434
Vgrain
p4435
aa(lp4436
Vtrade
p4437
aa(lp4438
Vearn
p4439
aa(lp4440
Vtrade
p4441
aa(lp4442
Vearn
p4443
aa(lp4444
Vearn
p4445
aa(lp4446
Vearn
p4447
aa(lp4448
Vearn
p4449
aa(lp4450
Vearn
p4451
aa(lp4452
Vmoney-fx
p4453
aa(lp4454
Vearn
p4455
aa(lp4456
Vgrain
p4457
aVwheat
p4458
aa(lp4459
Vearn
p4460
aa(lp4461
Vearn
p4462
aa(lp4463
Vearn
p4464
aa(lp4465
Vearn
p4466
aa(lp4467
Vearn
p4468
aa(lp4469
Vcrude
p4470
aa(lp4471
Vearn
p4472
aa(lp4473
Vearn
p4474
aa(lp4475
Vearn
p4476
aa(lp4477
Vearn
p4478
aa(lp4479
Vearn
p4480
aa(lp4481
Vmoney-fx
p4482
aVinterest
p4483
aa(lp4484
Vmoney-fx
p4485
aVinterest
p4486
aa(lp4487
Vearn
p4488
aa(lp4489
Vearn
p4490
aa(lp4491
Vearn
p4492
aa(lp4493
Vearn
p4494
aa(lp4495
Vearn
p4496
aa(lp4497
Vcrude
p4498
aa(lp4499
Vearn
p4500
aa(lp4501
Vearn
p4502
aa(lp4503
Vearn
p4504
aa(lp4505
Vgrain
p4506
aVwheat
p4507
aa(lp4508
Vgrain
p4509
aVwheat
p4510
aa(lp4511
Vmoney-fx
p4512
aa(lp4513
Vearn
p4514
aa(lp4515
Vcrude
p4516
aa(lp4517
Vearn
p4518
aa(lp4519
Vinterest
p4520
aa(lp4521
Vearn
p4522
aa(lp4523
Vearn
p4524
aa(lp4525
Vearn
p4526
aa(lp4527
Vearn
p4528
aa(lp4529
Vearn
p4530
aa(lp4531
Vearn
p4532
aa(lp4533
Vmoney-fx
p4534
aa(lp4535
Vcrude
p4536
aa(lp4537
Vearn
p4538
aa(lp4539
Vgrain
p4540
aVwheat
p4541
aa(lp4542
Vearn
p4543
aa(lp4544
Vcrude
p4545
aa(lp4546
Vearn
p4547
aa(lp4548
Vcrude
p4549
aa(lp4550
Vgrain
p4551
aVwheat
p4552
aa(lp4553
Vearn
p4554
aa(lp4555
Vearn
p4556
aa(lp4557
Vearn
p4558
aa(lp4559
Vmoney-fx
p4560
aa(lp4561
Vearn
p4562
aa(lp4563
Vgrain
p4564
aVcorn
p4565
aa(lp4566
Vearn
p4567
aa(lp4568
Vearn
p4569
aa(lp4570
Vearn
p4571
aa(lp4572
Vgrain
p4573
aVwheat
p4574
aa(lp4575
Vearn
p4576
aa(lp4577
Vearn
p4578
aa(lp4579
Vinterest
p4580
aa(lp4581
Vcrude
p4582
aa(lp4583
Vcrude
p4584
aa(lp4585
Vearn
p4586
aa(lp4587
Vcrude
p4588
aa(lp4589
Vcrude
p4590
aa(lp4591
Vearn
p4592
aa(lp4593
Vearn
p4594
aa(lp4595
Vearn
p4596
aa(lp4597
Vinterest
p4598
aa(lp4599
Vcrude
p4600
aa(lp4601
Vinterest
p4602
aa(lp4603
Vearn
p4604
aa(lp4605
Vearn
p4606
aa(lp4607
Vcrude
p4608
aa(lp4609
Vearn
p4610
aa(lp4611
Vearn
p4612
aa(lp4613
Vearn
p4614
aa(lp4615
Vinterest
p4616
aa(lp4617
Vearn
p4618
aa(lp4619
Vcrude
p4620
aa(lp4621
Vearn
p4622
aa(lp4623
Vearn
p4624
aa(lp4625
Vearn
p4626
aa(lp4627
Vcrude
p4628
aa(lp4629
Vgrain
p4630
aVwheat
p4631
aa(lp4632
Vearn
p4633
aa(lp4634
Vearn
p4635
aa(lp4636
Vearn
p4637
aa(lp4638
Vearn
p4639
aa(lp4640
Vearn
p4641
aa(lp4642
Vgrain
p4643
aVwheat
p4644
aVcorn
p4645
aa(lp4646
Vearn
p4647
aa(lp4648
Vearn
p4649
aa(lp4650
Vearn
p4651
aa(lp4652
Vearn
p4653
aa(lp4654
Vearn
p4655
aa(lp4656
Vearn
p4657
aa(lp4658
Vearn
p4659
aa(lp4660
Vgrain
p4661
aVcorn
p4662
aa(lp4663
Vwheat
p4664
aVcorn
p4665
aa(lp4666
Vearn
p4667
aa(lp4668
Vearn
p4669
aa(lp4670
Vearn
p4671
aa(lp4672
Vearn
p4673
aa(lp4674
Vearn
p4675
aa(lp4676
Vearn
p4677
aa(lp4678
Vtrade
p4679
aVgrain
p4680
aa(lp4681
Vearn
p4682
aa(lp4683
Vearn
p4684
aa(lp4685
Vgrain
p4686
aVwheat
p4687
aVcorn
p4688
aa(lp4689
Vcrude
p4690
aa(lp4691
Vgrain
p4692
aa(lp4693
Vgrain
p4694
aa(lp4695
Vgrain
p4696
aVcorn
p4697
aa(lp4698
Vearn
p4699
aa(lp4700
Vearn
p4701
aa(lp4702
Vearn
p4703
aa(lp4704
Vearn
p4705
aa(lp4706
Vearn
p4707
aa(lp4708
Vearn
p4709
aa(lp4710
Vearn
p4711
aa(lp4712
Vearn
p4713
aa(lp4714
Vearn
p4715
aa(lp4716
Vearn
p4717
aa(lp4718
Vcrude
p4719
aa(lp4720
Vearn
p4721
aa(lp4722
Vgrain
p4723
aVwheat
p4724
aa(lp4725
Vearn
p4726
aa(lp4727
Vearn
p4728
aa(lp4729
Vearn
p4730
aa(lp4731
Vcrude
p4732
aa(lp4733
Vearn
p4734
aa(lp4735
Vearn
p4736
aa(lp4737
Vearn
p4738
aa(lp4739
Vearn
p4740
aa(lp4741
Vearn
p4742
aa(lp4743
Vearn
p4744
aa(lp4745
Vearn
p4746
aa(lp4747
Vearn
p4748
aa(lp4749
Vearn
p4750
aa(lp4751
Vearn
p4752
aa(lp4753
Vgrain
p4754
aVwheat
p4755
aa(lp4756
Vearn
p4757
aa(lp4758
Vearn
p4759
aa(lp4760
Vmoney-fx
p4761
aa(lp4762
Vgrain
p4763
aVwheat
p4764
aa(lp4765
Vearn
p4766
aa(lp4767
Vearn
p4768
aa(lp4769
Vcrude
p4770
aa(lp4771
Vearn
p4772
aa(lp4773
Vinterest
p4774
aa(lp4775
Vinterest
p4776
aa(lp4777
Vearn
p4778
aa(lp4779
Vearn
p4780
aa(lp4781
Vearn
p4782
aa(lp4783
Vmoney-fx
p4784
aa(lp4785
Vearn
p4786
aa(lp4787
Vmoney-fx
p4788
aVinterest
p4789
aa(lp4790
Vinterest
p4791
aa(lp4792
Vinterest
p4793
aa(lp4794
Vinterest
p4795
aa(lp4796
Vinterest
p4797
aa(lp4798
Vinterest
p4799
aa(lp4800
Vearn
p4801
aa(lp4802
Vearn
p4803
aa(lp4804
Vgrain
p4805
aVcorn
p4806
aa(lp4807
Vmoney-fx
p4808
aa(lp4809
Vinterest
p4810
aa(lp4811
Vmoney-fx
p4812
aVinterest
p4813
aa(lp4814
Vmoney-fx
p4815
aVinterest
p4816
aa(lp4817
Vship
p4818
aVcrude
p4819
aa(lp4820
Vinterest
p4821
aVtrade
p4822
aa(lp4823
Vcrude
p4824
aa(lp4825
Vearn
p4826
aa(lp4827
Vearn
p4828
aa(lp4829
Vmoney-fx
p4830
aVinterest
p4831
aa(lp4832
Vcrude
p4833
aa(lp4834
Vearn
p4835
aa(lp4836
Vship
p4837
aa(lp4838
Vearn
p4839
aa(lp4840
Vearn
p4841
aa(lp4842
Vearn
p4843
aa(lp4844
Vmoney-fx
p4845
aa(lp4846
Vearn
p4847
aa(lp4848
Vtrade
p4849
aa(lp4850
Vmoney-fx
p4851
aVinterest
p4852
aa(lp4853
Vinterest
p4854
aa(lp4855
Vearn
p4856
aa(lp4857
Vearn
p4858
aa(lp4859
Vearn
p4860
aa(lp4861
Vearn
p4862
aa(lp4863
Vearn
p4864
aa(lp4865
Vearn
p4866
aa(lp4867
Vearn
p4868
aa(lp4869
Vearn
p4870
aa(lp4871
Vtrade
p4872
aa(lp4873
Vearn
p4874
aa(lp4875
Vearn
p4876
aa(lp4877
Vearn
p4878
aa(lp4879
Vearn
p4880
aa(lp4881
Vearn
p4882
aa(lp4883
Vearn
p4884
aa(lp4885
Vearn
p4886
aa(lp4887
Vearn
p4888
aa(lp4889
Vinterest
p4890
aa(lp4891
Vearn
p4892
aa(lp4893
Vearn
p4894
aa(lp4895
Vearn
p4896
aa(lp4897
Vearn
p4898
aa(lp4899
Vearn
p4900
aa(lp4901
Vearn
p4902
aa(lp4903
Vearn
p4904
aa(lp4905
Vearn
p4906
aa(lp4907
Vearn
p4908
aa(lp4909
Vearn
p4910
aa(lp4911
Vearn
p4912
aa(lp4913
Vearn
p4914
aa(lp4915
Vearn
p4916
aa(lp4917
Vearn
p4918
aa(lp4919
Vearn
p4920
aa(lp4921
Vearn
p4922
aa(lp4923
Vearn
p4924
aa(lp4925
Vearn
p4926
aa(lp4927
Vearn
p4928
aa(lp4929
Vearn
p4930
aa(lp4931
Vinterest
p4932
aVmoney-fx
p4933
aa(lp4934
Vearn
p4935
aa(lp4936
Vearn
p4937
aa(lp4938
Vearn
p4939
aa(lp4940
Vtrade
p4941
aa(lp4942
Vearn
p4943
aa(lp4944
Vearn
p4945
aa(lp4946
Vship
p4947
aa(lp4948
Vearn
p4949
aa(lp4950
Vmoney-fx
p4951
aVinterest
p4952
aa(lp4953
Vearn
p4954
aa(lp4955
Vearn
p4956
aa(lp4957
Vearn
p4958
aa(lp4959
Vearn
p4960
aa(lp4961
Vearn
p4962
aa(lp4963
Vearn
p4964
aa(lp4965
Vearn
p4966
aa(lp4967
Vearn
p4968
aa(lp4969
Vearn
p4970
aa(lp4971
Vmoney-fx
p4972
aa(lp4973
Vearn
p4974
aa(lp4975
Vcrude
p4976
aa(lp4977
Vearn
p4978
aa(lp4979
Vearn
p4980
aa(lp4981
Vearn
p4982
aa(lp4983
Vgrain
p4984
aVcorn
p4985
aa(lp4986
Vearn
p4987
aa(lp4988
Vgrain
p4989
aVcorn
p4990
aVship
p4991
aa(lp4992
Vearn
p4993
aa(lp4994
Vearn
p4995
aa(lp4996
Vearn
p4997
aa(lp4998
Vtrade
p4999
aa(lp5000
Vearn
p5001
aa(lp5002
Vtrade
p5003
aa(lp5004
Vearn
p5005
aa(lp5006
Vcrude
p5007
aa(lp5008
Vearn
p5009
aa(lp5010
Vcrude
p5011
aa(lp5012
Vearn
p5013
aa(lp5014
Vearn
p5015
aa(lp5016
Vearn
p5017
aa(lp5018
Vearn
p5019
aa(lp5020
Vearn
p5021
aa(lp5022
Vearn
p5023
aa(lp5024
Vgrain
p5025
aa(lp5026
Vearn
p5027
aa(lp5028
Vearn
p5029
aa(lp5030
Vearn
p5031
aa(lp5032
Vtrade
p5033
aa(lp5034
Vearn
p5035
aa(lp5036
Vearn
p5037
aa(lp5038
Vearn
p5039
aa(lp5040
Vcrude
p5041
aVship
p5042
aa(lp5043
Vearn
p5044
aa(lp5045
Vcrude
p5046
aa(lp5047
Vearn
p5048
aa(lp5049
Vearn
p5050
aa(lp5051
Vearn
p5052
aa(lp5053
Vearn
p5054
aa(lp5055
Vearn
p5056
aa(lp5057
Vearn
p5058
aa(lp5059
Vearn
p5060
aa(lp5061
Vearn
p5062
aa(lp5063
Vearn
p5064
aa(lp5065
Vearn
p5066
aa(lp5067
Vearn
p5068
aa(lp5069
Vearn
p5070
aa(lp5071
Vearn
p5072
aa(lp5073
Vearn
p5074
aa(lp5075
Vearn
p5076
aa(lp5077
Vearn
p5078
aa(lp5079
Vearn
p5080
aa(lp5081
Vearn
p5082
aa(lp5083
Vearn
p5084
aa(lp5085
Vearn
p5086
aa(lp5087
Vearn
p5088
aa(lp5089
Vearn
p5090
aa(lp5091
Vearn
p5092
aa(lp5093
Vship
p5094
aa(lp5095
Vtrade
p5096
aa(lp5097
Vgrain
p5098
aVwheat
p5099
aa(lp5100
Vearn
p5101
aa(lp5102
Vcrude
p5103
aa(lp5104
Vearn
p5105
aa(lp5106
Vearn
p5107
aa(lp5108
Vearn
p5109
aa(lp5110
Vearn
p5111
aa(lp5112
Vearn
p5113
aa(lp5114
Vearn
p5115
aa(lp5116
Vearn
p5117
aa(lp5118
Vgrain
p5119
aVcorn
p5120
aa(lp5121
Vearn
p5122
aa(lp5123
Vearn
p5124
aa(lp5125
Vearn
p5126
aa(lp5127
Vearn
p5128
aa(lp5129
Vearn
p5130
aa(lp5131
Vcrude
p5132
aVearn
p5133
aa(lp5134
Vearn
p5135
aa(lp5136
Vgrain
p5137
aVwheat
p5138
aa(lp5139
Vcrude
p5140
aa(lp5141
Vearn
p5142
aa(lp5143
Vearn
p5144
aa(lp5145
Vgrain
p5146
aVwheat
p5147
aa(lp5148
Vearn
p5149
aa(lp5150
Vtrade
p5151
aa(lp5152
Vearn
p5153
aa(lp5154
Vcrude
p5155
aa(lp5156
Vearn
p5157
aa(lp5158
Vearn
p5159
aa(lp5160
Vearn
p5161
aa(lp5162
Vinterest
p5163
aa(lp5164
Vearn
p5165
aa(lp5166
Vearn
p5167
aa(lp5168
Vearn
p5169
aa(lp5170
Vearn
p5171
aa(lp5172
Vearn
p5173
aa(lp5174
Vearn
p5175
aa(lp5176
Vearn
p5177
aa(lp5178
Vearn
p5179
aa(lp5180
Vearn
p5181
aa(lp5182
Vearn
p5183
aa(lp5184
Vearn
p5185
aa(lp5186
Vearn
p5187
aa(lp5188
Vearn
p5189
aa(lp5190
Vearn
p5191
aa(lp5192
Vcrude
p5193
aa(lp5194
Vearn
p5195
aa(lp5196
Vearn
p5197
aa(lp5198
Vearn
p5199
aa(lp5200
Vearn
p5201
aa(lp5202
Vearn
p5203
aa(lp5204
Vearn
p5205
aa(lp5206
Vearn
p5207
aa(lp5208
Vearn
p5209
aa(lp5210
Vearn
p5211
aa(lp5212
Vearn
p5213
aa(lp5214
Vearn
p5215
aa(lp5216
Vearn
p5217
aa(lp5218
Vearn
p5219
aa(lp5220
Vearn
p5221
aa(lp5222
Vearn
p5223
aa(lp5224
Vearn
p5225
aa(lp5226
Vearn
p5227
aa(lp5228
Vearn
p5229
aa(lp5230
Vearn
p5231
aa(lp5232
Vearn
p5233
aa(lp5234
Vearn
p5235
aa(lp5236
Vearn
p5237
aa(lp5238
Vearn
p5239
aa(lp5240
Vearn
p5241
aa(lp5242
Vearn
p5243
aa(lp5244
Vtrade
p5245
aa(lp5246
Vcrude
p5247
aa(lp5248
Vearn
p5249
aa(lp5250
Vcrude
p5251
aa(lp5252
Vearn
p5253
aa(lp5254
Vearn
p5255
aa(lp5256
Vearn
p5257
aa(lp5258
Vgrain
p5259
aVwheat
p5260
aa(lp5261
Vgrain
p5262
aVcorn
p5263
aa(lp5264
Vcrude
p5265
aa(lp5266
Vearn
p5267
aa(lp5268
Vgrain
p5269
aVcorn
p5270
aa(lp5271
Vgrain
p5272
aVwheat
p5273
aa(lp5274
Vgrain
p5275
aVwheat
p5276
aa(lp5277
Vcrude
p5278
aa(lp5279
Vearn
p5280
aa(lp5281
Vgrain
p5282
aVwheat
p5283
aa(lp5284
Vcrude
p5285
aa(lp5286
Vearn
p5287
aa(lp5288
Vinterest
p5289
aa(lp5290
Vtrade
p5291
aa(lp5292
Vearn
p5293
aa(lp5294
Vship
p5295
aa(lp5296
Vmoney-fx
p5297
aa(lp5298
Vgrain
p5299
aVwheat
p5300
aa(lp5301
Vtrade
p5302
aa(lp5303
Vtrade
p5304
aa(lp5305
Vtrade
p5306
aa(lp5307
Vgrain
p5308
aVwheat
p5309
aa(lp5310
Vtrade
p5311
aa(lp5312
Vearn
p5313
aa(lp5314
Vearn
p5315
aa(lp5316
Vtrade
p5317
aa(lp5318
Vmoney-fx
p5319
aa(lp5320
Vearn
p5321
aa(lp5322
Vcrude
p5323
aa(lp5324
Vearn
p5325
aa(lp5326
Vearn
p5327
aa(lp5328
Vearn
p5329
aa(lp5330
Vearn
p5331
aa(lp5332
Vearn
p5333
aa(lp5334
Vtrade
p5335
aa(lp5336
Vmoney-fx
p5337
aa(lp5338
Vmoney-fx
p5339
aa(lp5340
Vinterest
p5341
aa(lp5342
Vmoney-fx
p5343
aa(lp5344
Vmoney-fx
p5345
aa(lp5346
Vearn
p5347
aa(lp5348
Vearn
p5349
aa(lp5350
Vearn
p5351
aa(lp5352
Vearn
p5353
aa(lp5354
Vearn
p5355
aa(lp5356
Vgrain
p5357
aVwheat
p5358
aVcorn
p5359
aa(lp5360
Vearn
p5361
aa(lp5362
Vearn
p5363
aa(lp5364
Vearn
p5365
aa(lp5366
Vcrude
p5367
aa(lp5368
Vearn
p5369
aa(lp5370
Vearn
p5371
aa(lp5372
Vearn
p5373
aa(lp5374
Vearn
p5375
aa(lp5376
Vearn
p5377
aa(lp5378
Vearn
p5379
aa(lp5380
Vearn
p5381
aa(lp5382
Vearn
p5383
aa(lp5384
Vmoney-fx
p5385
aa(lp5386
Vearn
p5387
aa(lp5388
Vearn
p5389
aa(lp5390
Vtrade
p5391
aa(lp5392
Vearn
p5393
aa(lp5394
Vearn
p5395
aa(lp5396
Vcrude
p5397
aa(lp5398
Vmoney-fx
p5399
aa(lp5400
Vearn
p5401
aa(lp5402
Vgrain
p5403
aVship
p5404
aa(lp5405
Vearn
p5406
aa(lp5407
Vearn
p5408
aa(lp5409
Vearn
p5410
aa(lp5411
Vearn
p5412
aa(lp5413
Vship
p5414
aa(lp5415
Vearn
p5416
aa(lp5417
Vearn
p5418
aa(lp5419
Vearn
p5420
aa(lp5421
Vearn
p5422
aa(lp5423
Vearn
p5424
aa(lp5425
Vtrade
p5426
aa(lp5427
Vearn
p5428
aa(lp5429
Vearn
p5430
aa(lp5431
Vearn
p5432
aa(lp5433
Vearn
p5434
aa(lp5435
Vcrude
p5436
aa(lp5437
Vcrude
p5438
aa(lp5439
Vgrain
p5440
aa(lp5441
Vearn
p5442
aa(lp5443
Vearn
p5444
aa(lp5445
Vearn
p5446
aa(lp5447
Vmoney-fx
p5448
aVinterest
p5449
aa(lp5450
Vgrain
p5451
aa(lp5452
Vearn
p5453
aa(lp5454
Vcrude
p5455
aVearn
p5456
aa(lp5457
Vearn
p5458
aa(lp5459
Vearn
p5460
aa(lp5461
Vearn
p5462
aa(lp5463
Vearn
p5464
aa(lp5465
Vearn
p5466
aa(lp5467
Vearn
p5468
aa(lp5469
Vearn
p5470
aa(lp5471
Vship
p5472
aa(lp5473
Vmoney-fx
p5474
aa(lp5475
Vgrain
p5476
aVcorn
p5477
aVwheat
p5478
aa(lp5479
Vinterest
p5480
aVmoney-fx
p5481
aa(lp5482
Vearn
p5483
aa(lp5484
Vearn
p5485
aa(lp5486
Vearn
p5487
aa(lp5488
Vgrain
p5489
aVwheat
p5490
aVcorn
p5491
aa(lp5492
Vearn
p5493
aa(lp5494
Vearn
p5495
aa(lp5496
Vearn
p5497
aa(lp5498
Vearn
p5499
aa(lp5500
Vearn
p5501
aa(lp5502
Vearn
p5503
aa(lp5504
Vearn
p5505
aa(lp5506
Vearn
p5507
aa(lp5508
Vearn
p5509
aa(lp5510
Vearn
p5511
aa(lp5512
Vearn
p5513
aa(lp5514
Vearn
p5515
aa(lp5516
Vearn
p5517
aa(lp5518
Vearn
p5519
aa(lp5520
Vearn
p5521
aa(lp5522
Vearn
p5523
aa(lp5524
Vearn
p5525
aa(lp5526
Vearn
p5527
aa(lp5528
Vearn
p5529
aa(lp5530
Vearn
p5531
aa(lp5532
Vearn
p5533
aa(lp5534
Vcrude
p5535
aa(lp5536
Vearn
p5537
aa(lp5538
Vearn
p5539
aa(lp5540
Vinterest
p5541
aa(lp5542
Vmoney-fx
p5543
aa(lp5544
Vmoney-fx
p5545
aVinterest
p5546
aa(lp5547
Vearn
p5548
aa(lp5549
Vearn
p5550
aa(lp5551
Vinterest
p5552
aa(lp5553
Vearn
p5554
aa(lp5555
Vgrain
p5556
aVwheat
p5557
aa(lp5558
Vearn
p5559
aa(lp5560
Vearn
p5561
aa(lp5562
Vearn
p5563
aa(lp5564
Vearn
p5565
aa(lp5566
Vgrain
p5567
aVcorn
p5568
aa(lp5569
Vearn
p5570
aa(lp5571
Vearn
p5572
aa(lp5573
Vearn
p5574
aa(lp5575
Vearn
p5576
aa(lp5577
Vearn
p5578
aa(lp5579
Vcrude
p5580
aa(lp5581
Vearn
p5582
aa(lp5583
Vearn
p5584
aa(lp5585
Vearn
p5586
aa(lp5587
Vearn
p5588
aa(lp5589
Vtrade
p5590
aVmoney-fx
p5591
aa(lp5592
Vearn
p5593
aa(lp5594
Vearn
p5595
aa(lp5596
Vearn
p5597
aa(lp5598
Vearn
p5599
aa(lp5600
Vgrain
p5601
aVcorn
p5602
aa(lp5603
Vearn
p5604
aa(lp5605
Vgrain
p5606
aVcorn
p5607
aa(lp5608
Vgrain
p5609
aVcorn
p5610
aa(lp5611
Vmoney-fx
p5612
aa(lp5613
Vgrain
p5614
aVcorn
p5615
aa(lp5616
Vearn
p5617
aa(lp5618
Vearn
p5619
aa(lp5620
Vearn
p5621
aa(lp5622
Vearn
p5623
aa(lp5624
Vcrude
p5625
aa(lp5626
Vearn
p5627
aa(lp5628
Vearn
p5629
aa(lp5630
Vmoney-fx
p5631
aa(lp5632
Vearn
p5633
aa(lp5634
Vearn
p5635
aa(lp5636
Vearn
p5637
aa(lp5638
Vearn
p5639
aa(lp5640
Vearn
p5641
aa(lp5642
Vearn
p5643
aa(lp5644
Vearn
p5645
aa(lp5646
Vearn
p5647
aa(lp5648
Vearn
p5649
aa(lp5650
Vearn
p5651
aa(lp5652
Vmoney-fx
p5653
aVinterest
p5654
aa(lp5655
Vearn
p5656
aa(lp5657
Vearn
p5658
aa(lp5659
Vearn
p5660
aa(lp5661
Vearn
p5662
aa(lp5663
Vgrain
p5664
aVwheat
p5665
aa(lp5666
Vearn
p5667
aa(lp5668
Vearn
p5669
aa(lp5670
Vearn
p5671
aa(lp5672
Vtrade
p5673
aa(lp5674
Vearn
p5675
aa(lp5676
Vearn
p5677
aa(lp5678
Vearn
p5679
aa(lp5680
Vearn
p5681
aa(lp5682
Vearn
p5683
aa(lp5684
Vearn
p5685
aa(lp5686
Vcrude
p5687
aa(lp5688
Vearn
p5689
aa(lp5690
Vinterest
p5691
aa(lp5692
Vship
p5693
aa(lp5694
Vearn
p5695
aa(lp5696
Vearn
p5697
aa(lp5698
Vearn
p5699
aa(lp5700
Vearn
p5701
aa(lp5702
Vearn
p5703
aa(lp5704
Vearn
p5705
aa(lp5706
Vearn
p5707
aa(lp5708
Vearn
p5709
aa(lp5710
Vtrade
p5711
aa(lp5712
Vcrude
p5713
aa(lp5714
Vcrude
p5715
aa(lp5716
Vtrade
p5717
aa(lp5718
Vship
p5719
aa(lp5720
Vtrade
p5721
aa(lp5722
Vmoney-fx
p5723
aVinterest
p5724
aa(lp5725
Vearn
p5726
aa(lp5727
Vtrade
p5728
aa(lp5729
Vearn
p5730
aa(lp5731
Vgrain
p5732
aVwheat
p5733
aa(lp5734
Vmoney-fx
p5735
aVinterest
p5736
aa(lp5737
Vmoney-fx
p5738
aVinterest
p5739
aa(lp5740
Vinterest
p5741
aa(lp5742
Vgrain
p5743
aa(lp5744
Vmoney-fx
p5745
aa(lp5746
Vmoney-fx
p5747
aVinterest
p5748
aa(lp5749
Vearn
p5750
aa(lp5751
Vgrain
p5752
aa(lp5753
Vmoney-fx
p5754
aVinterest
p5755
aa(lp5756
Vmoney-fx
p5757
aVinterest
p5758
aa(lp5759
Vtrade
p5760
aa(lp5761
Vearn
p5762
aa(lp5763
Vcrude
p5764
aa(lp5765
Vmoney-fx
p5766
aVinterest
p5767
aa(lp5768
Vcrude
p5769
aa(lp5770
Vearn
p5771
aa(lp5772
Vearn
p5773
aa(lp5774
Vearn
p5775
aa(lp5776
Vtrade
p5777
aa(lp5778
Vtrade
p5779
aVmoney-fx
p5780
aa(lp5781
Vearn
p5782
aa(lp5783
Vtrade
p5784
aa(lp5785
Vtrade
p5786
aa(lp5787
Vearn
p5788
aa(lp5789
Vearn
p5790
aa(lp5791
Vinterest
p5792
aa(lp5793
Vcrude
p5794
aa(lp5795
Vtrade
p5796
aa(lp5797
Vship
p5798
aa(lp5799
Vtrade
p5800
aa(lp5801
Vearn
p5802
aa(lp5803
Vmoney-fx
p5804
aVinterest
p5805
aa(lp5806
Vearn
p5807
aa(lp5808
Vtrade
p5809
aa(lp5810
Vmoney-fx
p5811
aa(lp5812
Vearn
p5813
aa(lp5814
Vearn
p5815
aa(lp5816
Vearn
p5817
aa(lp5818
Vearn
p5819
aa(lp5820
Vcrude
p5821
aa(lp5822
Vearn
p5823
aa(lp5824
Vearn
p5825
aa(lp5826
Vearn
p5827
aa(lp5828
Vearn
p5829
aa(lp5830
Vearn
p5831
aa(lp5832
Vgrain
p5833
aVcorn
p5834
aa(lp5835
Vearn
p5836
aa(lp5837
Vearn
p5838
aa(lp5839
Vearn
p5840
aa(lp5841
Vmoney-fx
p5842
aa(lp5843
Vinterest
p5844
aVmoney-fx
p5845
aa(lp5846
Vearn
p5847
aa(lp5848
Vearn
p5849
aa(lp5850
Vearn
p5851
aa(lp5852
Vearn
p5853
aa(lp5854
Vearn
p5855
aa(lp5856
Vearn
p5857
aa(lp5858
Vearn
p5859
aa(lp5860
Vearn
p5861
aa(lp5862
Vearn
p5863
aa(lp5864
Vearn
p5865
aa(lp5866
Vearn
p5867
aa(lp5868
Vearn
p5869
aa(lp5870
Vearn
p5871
aVcrude
p5872
aa(lp5873
Vearn
p5874
aa(lp5875
Vearn
p5876
aa(lp5877
Vearn
p5878
aa(lp5879
Vearn
p5880
aa(lp5881
Vearn
p5882
aa(lp5883
Vearn
p5884
aa(lp5885
Vearn
p5886
aa(lp5887
Vearn
p5888
aa(lp5889
Vmoney-fx
p5890
aVinterest
p5891
aa(lp5892
Vearn
p5893
aa(lp5894
Vearn
p5895
aa(lp5896
Vmoney-fx
p5897
aVinterest
p5898
aa(lp5899
Vtrade
p5900
aa(lp5901
Vearn
p5902
aa(lp5903
Vearn
p5904
aa(lp5905
Vearn
p5906
aa(lp5907
Vearn
p5908
aa(lp5909
Vgrain
p5910
aVcorn
p5911
aVship
p5912
aa(lp5913
Vearn
p5914
aa(lp5915
Vtrade
p5916
aa(lp5917
Vtrade
p5918
aVmoney-fx
p5919
aa(lp5920
Vearn
p5921
aa(lp5922
Vearn
p5923
aa(lp5924
Vearn
p5925
aa(lp5926
Vearn
p5927
aa(lp5928
Vearn
p5929
aa(lp5930
Vearn
p5931
aa(lp5932
Vearn
p5933
aa(lp5934
Vearn
p5935
aa(lp5936
Vearn
p5937
aa(lp5938
Vearn
p5939
aa(lp5940
Vearn
p5941
aa(lp5942
Vearn
p5943
aa(lp5944
Vearn
p5945
aa(lp5946
Vearn
p5947
aa(lp5948
Vearn
p5949
aa(lp5950
Vearn
p5951
aa(lp5952
Vcrude
p5953
aa(lp5954
Vearn
p5955
aa(lp5956
Vearn
p5957
aa(lp5958
Vearn
p5959
aa(lp5960
Vearn
p5961
aa(lp5962
Vearn
p5963
aa(lp5964
Vearn
p5965
aa(lp5966
Vearn
p5967
aa(lp5968
Vearn
p5969
aa(lp5970
Vearn
p5971
aa(lp5972
Vearn
p5973
aa(lp5974
Vearn
p5975
aa(lp5976
Vearn
p5977
aa(lp5978
Vearn
p5979
aa(lp5980
Vearn
p5981
aa(lp5982
Vearn
p5983
aa(lp5984
Vearn
p5985
aa(lp5986
Vearn
p5987
aa(lp5988
Vearn
p5989
aa(lp5990
Vearn
p5991
aa(lp5992
Vearn
p5993
aa(lp5994
Vearn
p5995
aa(lp5996
Vearn
p5997
aa(lp5998
Vearn
p5999
aa(lp6000
Vearn
p6001
aa(lp6002
Vearn
p6003
aa(lp6004
Vearn
p6005
aa(lp6006
Vtrade
p6007
aa(lp6008
Vearn
p6009
aa(lp6010
Vearn
p6011
aa(lp6012
Vgrain
p6013
aVcorn
p6014
aa(lp6015
Vearn
p6016
aa(lp6017
Vearn
p6018
aa(lp6019
Vearn
p6020
aa(lp6021
Vgrain
p6022
aVwheat
p6023
aVcorn
p6024
aa(lp6025
Vearn
p6026
aa(lp6027
Vearn
p6028
aa(lp6029
Vgrain
p6030
aVcorn
p6031
aa(lp6032
Vearn
p6033
aa(lp6034
Vearn
p6035
aa(lp6036
Vmoney-fx
p6037
aa(lp6038
Vearn
p6039
aa(lp6040
Vearn
p6041
aa(lp6042
Vearn
p6043
aa(lp6044
Vearn
p6045
aa(lp6046
Vgrain
p6047
aVwheat
p6048
aa(lp6049
Vearn
p6050
aa(lp6051
Vship
p6052
aa(lp6053
Vship
p6054
aa(lp6055
Vearn
p6056
aa(lp6057
Vearn
p6058
aa(lp6059
Vearn
p6060
aa(lp6061
Vearn
p6062
aa(lp6063
Vearn
p6064
aa(lp6065
Vearn
p6066
aa(lp6067
Vearn
p6068
aa(lp6069
Vearn
p6070
aa(lp6071
Vearn
p6072
aa(lp6073
Vearn
p6074
aa(lp6075
Vgrain
p6076
aVwheat
p6077
aa(lp6078
Vgrain
p6079
aVcorn
p6080
aa(lp6081
Vearn
p6082
aa(lp6083
Vearn
p6084
aa(lp6085
Vship
p6086
aVgrain
p6087
aa(lp6088
Vearn
p6089
aa(lp6090
Vearn
p6091
aa(lp6092
Vcrude
p6093
aa(lp6094
Vearn
p6095
aa(lp6096
Vearn
p6097
aa(lp6098
Vearn
p6099
aa(lp6100
Vearn
p6101
aa(lp6102
Vearn
p6103
aa(lp6104
Vearn
p6105
aa(lp6106
Vearn
p6107
aa(lp6108
Vtrade
p6109
aa(lp6110
Vearn
p6111
aa(lp6112
Vearn
p6113
aa(lp6114
Vearn
p6115
aa(lp6116
Vearn
p6117
aa(lp6118
Vcrude
p6119
aa(lp6120
Vtrade
p6121
aa(lp6122
Vearn
p6123
aa(lp6124
Vearn
p6125
aa(lp6126
Vearn
p6127
aa(lp6128
Vearn
p6129
aa(lp6130
Vearn
p6131
aa(lp6132
Vearn
p6133
aa(lp6134
Vmoney-fx
p6135
aa(lp6136
Vcrude
p6137
aa(lp6138
Vmoney-fx
p6139
aa(lp6140
Vtrade
p6141
aa(lp6142
Vearn
p6143
aa(lp6144
Vcrude
p6145
aa(lp6146
Vearn
p6147
aa(lp6148
Vearn
p6149
aa(lp6150
Vmoney-fx
p6151
aa(lp6152
Vmoney-fx
p6153
aa(lp6154
Vcrude
p6155
aa(lp6156
Vtrade
p6157
aa(lp6158
Vinterest
p6159
aa(lp6160
Vtrade
p6161
aa(lp6162
Vship
p6163
aa(lp6164
Vcrude
p6165
aa(lp6166
Vearn
p6167
aa(lp6168
Vearn
p6169
aa(lp6170
Vcrude
p6171
aa(lp6172
Vtrade
p6173
aVgrain
p6174
aa(lp6175
Vcrude
p6176
aa(lp6177
Vinterest
p6178
aVtrade
p6179
aa(lp6180
Vinterest
p6181
aa(lp6182
Vtrade
p6183
aa(lp6184
Vgrain
p6185
aVcorn
p6186
aa(lp6187
Vtrade
p6188
aa(lp6189
Vinterest
p6190
aa(lp6191
Vmoney-fx
p6192
aVinterest
p6193
aa(lp6194
Vmoney-fx
p6195
aVinterest
p6196
aa(lp6197
Vtrade
p6198
aa(lp6199
Vtrade
p6200
aa(lp6201
Vinterest
p6202
aVmoney-fx
p6203
aVtrade
p6204
aa(lp6205
Vearn
p6206
aa(lp6207
Vtrade
p6208
aa(lp6209
Vtrade
p6210
aa(lp6211
Vship
p6212
aa(lp6213
Vcrude
p6214
aa(lp6215
Vgrain
p6216
aVcorn
p6217
aa(lp6218
Vearn
p6219
aa(lp6220
Vearn
p6221
aa(lp6222
Vgrain
p6223
aa(lp6224
Vgrain
p6225
aVcorn
p6226
aa(lp6227
Vcrude
p6228
aa(lp6229
Vmoney-fx
p6230
aVinterest
p6231
aa(lp6232
Vearn
p6233
aa(lp6234
Vtrade
p6235
aa(lp6236
Vtrade
p6237
aa(lp6238
Vearn
p6239
aa(lp6240
Vgrain
p6241
aVwheat
p6242
aa(lp6243
Vmoney-fx
p6244
aVinterest
p6245
aa(lp6246
Vinterest
p6247
aa(lp6248
Vtrade
p6249
aa(lp6250
Vcrude
p6251
aVship
p6252
aa(lp6253
Vmoney-fx
p6254
aVtrade
p6255
aa(lp6256
Vmoney-fx
p6257
aVinterest
p6258
aa(lp6259
Vship
p6260
aa(lp6261
Vtrade
p6262
aa(lp6263
Vmoney-fx
p6264
aa(lp6265
Vship
p6266
aa(lp6267
Vcrude
p6268
aa(lp6269
Vcrude
p6270
aa(lp6271
Vtrade
p6272
aa(lp6273
Vgrain
p6274
aa(lp6275
Vship
p6276
aa(lp6277
Vearn
p6278
aa(lp6279
Vearn
p6280
aa(lp6281
Vearn
p6282
aa(lp6283
Vearn
p6284
aa(lp6285
Vearn
p6286
aa(lp6287
Vearn
p6288
aa(lp6289
Vearn
p6290
aa(lp6291
Vmoney-fx
p6292
aa(lp6293
Vearn
p6294
aa(lp6295
Vtrade
p6296
aa(lp6297
Vtrade
p6298
aa(lp6299
Vearn
p6300
aa(lp6301
Vship
p6302
aa(lp6303
Vmoney-fx
p6304
aVinterest
p6305
aa(lp6306
Vtrade
p6307
aa(lp6308
Vearn
p6309
aa(lp6310
Vearn
p6311
aa(lp6312
Vgrain
p6313
aVcorn
p6314
aa(lp6315
Vearn
p6316
aa(lp6317
Vearn
p6318
aa(lp6319
Vearn
p6320
aa(lp6321
Vearn
p6322
aa(lp6323
Vtrade
p6324
aVgrain
p6325
aVcorn
p6326
aVwheat
p6327
aa(lp6328
Vearn
p6329
aa(lp6330
Vearn
p6331
aa(lp6332
Vearn
p6333
aa(lp6334
Vcrude
p6335
aa(lp6336
Vearn
p6337
aa(lp6338
Vearn
p6339
aa(lp6340
Vearn
p6341
aa(lp6342
Vearn
p6343
aa(lp6344
Vearn
p6345
aa(lp6346
Vearn
p6347
aa(lp6348
Vmoney-fx
p6349
aVinterest
p6350
aa(lp6351
Vearn
p6352
aa(lp6353
Vmoney-fx
p6354
aa(lp6355
Vmoney-fx
p6356
aa(lp6357
Vearn
p6358
aa(lp6359
Vearn
p6360
aa(lp6361
Vearn
p6362
aa(lp6363
Vearn
p6364
aa(lp6365
Vearn
p6366
aa(lp6367
Vship
p6368
aVgrain
p6369
aa(lp6370
Vearn
p6371
aa(lp6372
Vearn
p6373
aa(lp6374
Vearn
p6375
aa(lp6376
Vearn
p6377
aa(lp6378
Vearn
p6379
aa(lp6380
Vearn
p6381
aa(lp6382
Vearn
p6383
aa(lp6384
Vearn
p6385
aa(lp6386
Vinterest
p6387
aa(lp6388
Vinterest
p6389
aa(lp6390
Vearn
p6391
aa(lp6392
Vearn
p6393
aa(lp6394
Vearn
p6395
aa(lp6396
Vearn
p6397
aa(lp6398
Vgrain
p6399
aa(lp6400
Vearn
p6401
aa(lp6402
Vearn
p6403
aa(lp6404
Vearn
p6405
aa(lp6406
Vearn
p6407
aa(lp6408
Vearn
p6409
aa(lp6410
Vgrain
p6411
aVcorn
p6412
aa(lp6413
Vinterest
p6414
aa(lp6415
Vcrude
p6416
aa(lp6417
Vcrude
p6418
aa(lp6419
Vearn
p6420
aa(lp6421
Vearn
p6422
aa(lp6423
Vgrain
p6424
aVwheat
p6425
aa(lp6426
Vcrude
p6427
aVship
p6428
aa(lp6429
Vearn
p6430
aa(lp6431
Vearn
p6432
aa(lp6433
Vearn
p6434
aa(lp6435
Vearn
p6436
aa(lp6437
Vcrude
p6438
aVship
p6439
aa(lp6440
Vgrain
p6441
aVcorn
p6442
aa(lp6443
Vgrain
p6444
aVcorn
p6445
aa(lp6446
Vearn
p6447
aa(lp6448
Vearn
p6449
aa(lp6450
Vearn
p6451
aa(lp6452
Vearn
p6453
aa(lp6454
Vearn
p6455
aa(lp6456
Vearn
p6457
aa(lp6458
Vearn
p6459
aa(lp6460
Vcrude
p6461
aa(lp6462
Vearn
p6463
aa(lp6464
Vearn
p6465
aa(lp6466
Vearn
p6467
aa(lp6468
Vearn
p6469
aa(lp6470
Vearn
p6471
aa(lp6472
Vearn
p6473
aa(lp6474
Vearn
p6475
aa(lp6476
Vearn
p6477
aa(lp6478
Vcrude
p6479
aa(lp6480
Vearn
p6481
aa(lp6482
Vearn
p6483
aa(lp6484
Vearn
p6485
aa(lp6486
Vearn
p6487
aa(lp6488
Vearn
p6489
aa(lp6490
Vship
p6491
aVcrude
p6492
aa(lp6493
Vearn
p6494
aa(lp6495
Vearn
p6496
aa(lp6497
Vearn
p6498
aa(lp6499
Vearn
p6500
aa(lp6501
Vearn
p6502
aa(lp6503
Vearn
p6504
aa(lp6505
Vearn
p6506
aa(lp6507
Vgrain
p6508
aVwheat
p6509
aVcorn
p6510
aa(lp6511
Vearn
p6512
aa(lp6513
Vearn
p6514
aa(lp6515
Vearn
p6516
aa(lp6517
Vearn
p6518
aa(lp6519
Vcrude
p6520
aa(lp6521
Vtrade
p6522
aa(lp6523
Vearn
p6524
aa(lp6525
Vearn
p6526
aa(lp6527
Vearn
p6528
aa(lp6529
Vearn
p6530
aa(lp6531
Vearn
p6532
aa(lp6533
Vmoney-fx
p6534
aa(lp6535
Vearn
p6536
aa(lp6537
Vearn
p6538
aa(lp6539
Vearn
p6540
aa(lp6541
Vmoney-fx
p6542
aa(lp6543
Vearn
p6544
aa(lp6545
Vearn
p6546
aa(lp6547
Vearn
p6548
aa(lp6549
Vearn
p6550
aa(lp6551
Vmoney-fx
p6552
aa(lp6553
Vmoney-fx
p6554
aa(lp6555
Vmoney-fx
p6556
aa(lp6557
Vmoney-fx
p6558
aa(lp6559
Vmoney-fx
p6560
aa(lp6561
Vmoney-fx
p6562
aa(lp6563
Vtrade
p6564
aa(lp6565
Vearn
p6566
aa(lp6567
Vtrade
p6568
aa(lp6569
Vtrade
p6570
aVmoney-fx
p6571
aa(lp6572
Vcrude
p6573
aa(lp6574
Vtrade
p6575
aa(lp6576
Vearn
p6577
aVcrude
p6578
aa(lp6579
Vtrade
p6580
aa(lp6581
Vgrain
p6582
aVwheat
p6583
aa(lp6584
Vmoney-fx
p6585
aa(lp6586
Vcrude
p6587
aa(lp6588
Vmoney-fx
p6589
aa(lp6590
Vtrade
p6591
aa(lp6592
Vearn
p6593
aa(lp6594
Vcrude
p6595
aa(lp6596
Vearn
p6597
aa(lp6598
Vearn
p6599
aa(lp6600
Vgrain
p6601
aa(lp6602
Vearn
p6603
aa(lp6604
Vearn
p6605
aa(lp6606
Vearn
p6607
aa(lp6608
Vmoney-fx
p6609
aa(lp6610
Vcrude
p6611
aa(lp6612
Vtrade
p6613
aa(lp6614
Vmoney-fx
p6615
aa(lp6616
Vearn
p6617
aVcrude
p6618
aa(lp6619
Vearn
p6620
aa(lp6621
Vtrade
p6622
aa(lp6623
Vtrade
p6624
aa(lp6625
Vmoney-fx
p6626
aa(lp6627
Vearn
p6628
aa(lp6629
Vearn
p6630
aa(lp6631
Vgrain
p6632
aa(lp6633
Vmoney-fx
p6634
aa(lp6635
Vmoney-fx
p6636
aa(lp6637
Vtrade
p6638
aa(lp6639
Vtrade
p6640
aa(lp6641
Vmoney-fx
p6642
aa(lp6643
Vearn
p6644
aa(lp6645
Vtrade
p6646
aa(lp6647
Vearn
p6648
aa(lp6649
Vmoney-fx
p6650
aa(lp6651
Vtrade
p6652
aa(lp6653
Vcrude
p6654
aa(lp6655
Vinterest
p6656
aa(lp6657
Vmoney-fx
p6658
aa(lp6659
Vcrude
p6660
aVship
p6661
aa(lp6662
Vtrade
p6663
aa(lp6664
Vinterest
p6665
aa(lp6666
Vmoney-fx
p6667
aa(lp6668
Vgrain
p6669
aa(lp6670
Vship
p6671
aa(lp6672
Vtrade
p6673
aa(lp6674
Vship
p6675
aa(lp6676
Vtrade
p6677
aa(lp6678
Vearn
p6679
aa(lp6680
Vearn
p6681
aa(lp6682
Vearn
p6683
aa(lp6684
Vmoney-fx
p6685
aa(lp6686
Vmoney-fx
p6687
aa(lp6688
Vearn
p6689
aa(lp6690
Vearn
p6691
aa(lp6692
Vmoney-fx
p6693
aVinterest
p6694
aa(lp6695
Vearn
p6696
aa(lp6697
Vtrade
p6698
aa(lp6699
Vmoney-fx
p6700
aa(lp6701
Vearn
p6702
aa(lp6703
Vearn
p6704
aa(lp6705
Vearn
p6706
aa(lp6707
Vmoney-fx
p6708
aa(lp6709
Vearn
p6710
aa(lp6711
Vearn
p6712
aa(lp6713
Vearn
p6714
aa(lp6715
Vearn
p6716
aa(lp6717
Vearn
p6718
aa(lp6719
Vship
p6720
aa(lp6721
Vearn
p6722
aa(lp6723
Vtrade
p6724
aa(lp6725
Vtrade
p6726
aa(lp6727
Vship
p6728
aVcrude
p6729
aa(lp6730
Vearn
p6731
aa(lp6732
Vcrude
p6733
aa(lp6734
Vgrain
p6735
aVcorn
p6736
aVwheat
p6737
aa(lp6738
Vmoney-fx
p6739
aa(lp6740
Vearn
p6741
aa(lp6742
Vcrude
p6743
aa(lp6744
Vearn
p6745
aa(lp6746
Vearn
p6747
aa(lp6748
Vearn
p6749
aa(lp6750
Vearn
p6751
aa(lp6752
Vearn
p6753
aa(lp6754
Vearn
p6755
aa(lp6756
Vearn
p6757
aa(lp6758
Vearn
p6759
aa(lp6760
Vearn
p6761
aa(lp6762
Vship
p6763
aa(lp6764
Vmoney-fx
p6765
aa(lp6766
Vearn
p6767
aa(lp6768
Vearn
p6769
aa(lp6770
Vgrain
p6771
aa(lp6772
Vinterest
p6773
aa(lp6774
Vearn
p6775
aa(lp6776
Vearn
p6777
aa(lp6778
Vearn
p6779
aa(lp6780
Vcrude
p6781
aa(lp6782
Vearn
p6783
aa(lp6784
Vcrude
p6785
aa(lp6786
Vearn
p6787
aVcrude
p6788
aa(lp6789
Vearn
p6790
aa(lp6791
Vcrude
p6792
aa(lp6793
Vearn
p6794
aa(lp6795
Vmoney-fx
p6796
aa(lp6797
Vearn
p6798
aa(lp6799
Vship
p6800
aVcrude
p6801
aa(lp6802
Vearn
p6803
aa(lp6804
Vearn
p6805
aa(lp6806
Vearn
p6807
aa(lp6808
Vearn
p6809
aa(lp6810
Vearn
p6811
aa(lp6812
Vearn
p6813
aa(lp6814
Vearn
p6815
aa(lp6816
Vearn
p6817
aa(lp6818
Vearn
p6819
aa(lp6820
Vcrude
p6821
aa(lp6822
Vmoney-fx
p6823
aVinterest
p6824
aa(lp6825
Vearn
p6826
aa(lp6827
Vearn
p6828
aa(lp6829
Vearn
p6830
aa(lp6831
Vgrain
p6832
aa(lp6833
Vearn
p6834
aa(lp6835
Vearn
p6836
aa(lp6837
Vearn
p6838
aVship
p6839
aa(lp6840
Vearn
p6841
aa(lp6842
Vearn
p6843
aa(lp6844
Vtrade
p6845
aa(lp6846
Vearn
p6847
aa(lp6848
Vcrude
p6849
aa(lp6850
Vearn
p6851
aa(lp6852
Vtrade
p6853
aVmoney-fx
p6854
aa(lp6855
Vearn
p6856
aa(lp6857
Vearn
p6858
aa(lp6859
Vearn
p6860
aa(lp6861
Vearn
p6862
aa(lp6863
Vearn
p6864
aa(lp6865
Vgrain
p6866
aVcorn
p6867
aa(lp6868
Vgrain
p6869
aa(lp6870
Vearn
p6871
aa(lp6872
Vship
p6873
aa(lp6874
Vinterest
p6875
aa(lp6876
Vearn
p6877
aa(lp6878
Vearn
p6879
aVcrude
p6880
aa(lp6881
Vearn
p6882
aVcrude
p6883
aa(lp6884
Vearn
p6885
aa(lp6886
Vearn
p6887
aa(lp6888
Vearn
p6889
aa(lp6890
Vearn
p6891
aa(lp6892
Vearn
p6893
aVcrude
p6894
aa(lp6895
Vearn
p6896
aa(lp6897
Vearn
p6898
aa(lp6899
Vearn
p6900
aa(lp6901
Vearn
p6902
aa(lp6903
Vearn
p6904
aa(lp6905
Vtrade
p6906
aa(lp6907
Vgrain
p6908
aVcorn
p6909
aa(lp6910
Vmoney-fx
p6911
aa(lp6912
Vearn
p6913
aa(lp6914
Vearn
p6915
aa(lp6916
Vinterest
p6917
aa(lp6918
Vearn
p6919
aa(lp6920
Vgrain
p6921
aVcorn
p6922
aVwheat
p6923
aa(lp6924
Vearn
p6925
aa(lp6926
Vearn
p6927
aa(lp6928
Vearn
p6929
aa(lp6930
Vearn
p6931
aa(lp6932
Vtrade
p6933
aVmoney-fx
p6934
aa(lp6935
Vinterest
p6936
aa(lp6937
Vtrade
p6938
aa(lp6939
Vgrain
p6940
aa(lp6941
Vgrain
p6942
aVwheat
p6943
aa(lp6944
Vmoney-fx
p6945
aa(lp6946
Vearn
p6947
aa(lp6948
Vearn
p6949
aa(lp6950
Vcrude
p6951
aa(lp6952
Vearn
p6953
aa(lp6954
Vearn
p6955
aa(lp6956
Vcrude
p6957
aa(lp6958
Vearn
p6959
aa(lp6960
Vearn
p6961
aa(lp6962
Vearn
p6963
aa(lp6964
Vearn
p6965
aa(lp6966
Vtrade
p6967
aa(lp6968
Vearn
p6969
aa(lp6970
Vmoney-fx
p6971
aa(lp6972
Vmoney-fx
p6973
aVtrade
p6974
aa(lp6975
Vearn
p6976
aa(lp6977
Vgrain
p6978
aVcorn
p6979
aa(lp6980
Vtrade
p6981
aa(lp6982
Vmoney-fx
p6983
aa(lp6984
Vcrude
p6985
aa(lp6986
Vearn
p6987
aa(lp6988
Vearn
p6989
aa(lp6990
Vearn
p6991
aa(lp6992
Vearn
p6993
aa(lp6994
Vtrade
p6995
aa(lp6996
Vmoney-fx
p6997
aa(lp6998
Vearn
p6999
aa(lp7000
Vgrain
p7001
aVcorn
p7002
aa(lp7003
Vgrain
p7004
aVcorn
p7005
aa(lp7006
Vgrain
p7007
aVwheat
p7008
aa(lp7009
Vearn
p7010
aa(lp7011
Vearn
p7012
aa(lp7013
Vearn
p7014
aa(lp7015
Vearn
p7016
aa(lp7017
Vearn
p7018
aa(lp7019
Vearn
p7020
aa(lp7021
Vearn
p7022
aa(lp7023
Vearn
p7024
aa(lp7025
Vearn
p7026
aa(lp7027
Vmoney-fx
p7028
aa(lp7029
Vmoney-fx
p7030
aa(lp7031
Vearn
p7032
aa(lp7033
Vmoney-fx
p7034
aa(lp7035
Vmoney-fx
p7036
aa(lp7037
Vmoney-fx
p7038
aa(lp7039
Vmoney-fx
p7040
aa(lp7041
Vmoney-fx
p7042
aa(lp7043
Vtrade
p7044
aa(lp7045
Vinterest
p7046
aa(lp7047
Vinterest
p7048
aVmoney-fx
p7049
aa(lp7050
Vearn
p7051
aa(lp7052
Vearn
p7053
aa(lp7054
Vtrade
p7055
aa(lp7056
Vmoney-fx
p7057
aa(lp7058
Vcrude
p7059
aa(lp7060
Vearn
p7061
aa(lp7062
Vearn
p7063
aa(lp7064
Vearn
p7065
aa(lp7066
Vearn
p7067
aa(lp7068
Vmoney-fx
p7069
aa(lp7070
Vmoney-fx
p7071
aVinterest
p7072
aa(lp7073
Vmoney-fx
p7074
aa(lp7075
Vmoney-fx
p7076
aa(lp7077
Vtrade
p7078
aa(lp7079
Vearn
p7080
aa(lp7081
Vearn
p7082
aa(lp7083
Vearn
p7084
aa(lp7085
Vearn
p7086
aa(lp7087
Vtrade
p7088
aa(lp7089
Vearn
p7090
aa(lp7091
Vearn
p7092
aa(lp7093
Vearn
p7094
aa(lp7095
Vtrade
p7096
aa(lp7097
Vearn
p7098
aa(lp7099
Vearn
p7100
aa(lp7101
Vcrude
p7102
aa(lp7103
Vmoney-fx
p7104
aa(lp7105
Vmoney-fx
p7106
aa(lp7107
Vinterest
p7108
aVmoney-fx
p7109
aa(lp7110
Vmoney-fx
p7111
aa(lp7112
Vmoney-fx
p7113
aa(lp7114
Vmoney-fx
p7115
aa(lp7116
Vmoney-fx
p7117
aa(lp7118
Vmoney-fx
p7119
aa(lp7120
Vearn
p7121
aa(lp7122
Vearn
p7123
aa(lp7124
Vearn
p7125
aa(lp7126
Vearn
p7127
aa(lp7128
Vearn
p7129
aa(lp7130
Vearn
p7131
aa(lp7132
Vearn
p7133
aa(lp7134
Vearn
p7135
aa(lp7136
Vearn
p7137
aa(lp7138
Vearn
p7139
aa(lp7140
Vcrude
p7141
aa(lp7142
Vearn
p7143
aa(lp7144
Vearn
p7145
aa(lp7146
Vmoney-fx
p7147
aVinterest
p7148
aa(lp7149
Vearn
p7150
aa(lp7151
Vearn
p7152
aa(lp7153
Vearn
p7154
aa(lp7155
Vearn
p7156
aa(lp7157
Vearn
p7158
aa(lp7159
Vearn
p7160
aa(lp7161
Vearn
p7162
aa(lp7163
Vearn
p7164
aa(lp7165
Vearn
p7166
aa(lp7167
Vearn
p7168
aa(lp7169
Vcrude
p7170
aa(lp7171
Vearn
p7172
aa(lp7173
Vmoney-fx
p7174
aa(lp7175
Vearn
p7176
aa(lp7177
Vearn
p7178
aa(lp7179
Vcrude
p7180
aa(lp7181
Vmoney-fx
p7182
aa(lp7183
Vmoney-fx
p7184
aa(lp7185
Vearn
p7186
aa(lp7187
Vearn
p7188
aa(lp7189
Vtrade
p7190
aa(lp7191
Vearn
p7192
aa(lp7193
Vearn
p7194
aa(lp7195
Vearn
p7196
aa(lp7197
Vship
p7198
aa(lp7199
Vtrade
p7200
aa(lp7201
Vearn
p7202
aa(lp7203
Vgrain
p7204
aVcorn
p7205
aa(lp7206
Vearn
p7207
aa(lp7208
Vearn
p7209
aa(lp7210
Vearn
p7211
aa(lp7212
Vearn
p7213
aa(lp7214
Vearn
p7215
aa(lp7216
Vearn
p7217
aa(lp7218
Vearn
p7219
aa(lp7220
Vearn
p7221
aa(lp7222
Vship
p7223
aa(lp7224
Vearn
p7225
aa(lp7226
Vearn
p7227
aa(lp7228
Vship
p7229
aa(lp7230
Vinterest
p7231
aVmoney-fx
p7232
aa(lp7233
Vship
p7234
aa(lp7235
Vearn
p7236
aa(lp7237
Vearn
p7238
aa(lp7239
Vearn
p7240
aa(lp7241
Vearn
p7242
aa(lp7243
Vearn
p7244
aa(lp7245
Vearn
p7246
aa(lp7247
Vmoney-fx
p7248
aa(lp7249
Vearn
p7250
aa(lp7251
Vearn
p7252
aa(lp7253
Vearn
p7254
aa(lp7255
Vearn
p7256
aa(lp7257
Vearn
p7258
aa(lp7259
Vearn
p7260
aa(lp7261
Vearn
p7262
aa(lp7263
Vearn
p7264
aa(lp7265
Vtrade
p7266
aVgrain
p7267
aa(lp7268
Vearn
p7269
aa(lp7270
Vearn
p7271
aa(lp7272
Vearn
p7273
aa(lp7274
Vtrade
p7275
aa(lp7276
Vearn
p7277
aa(lp7278
Vearn
p7279
aa(lp7280
Vearn
p7281
aa(lp7282
Vearn
p7283
aa(lp7284
Vearn
p7285
aa(lp7286
Vearn
p7287
aa(lp7288
Vearn
p7289
aa(lp7290
Vcrude
p7291
aa(lp7292
Vearn
p7293
aa(lp7294
Vearn
p7295
aa(lp7296
Vearn
p7297
aa(lp7298
Vearn
p7299
aa(lp7300
Vcrude
p7301
aa(lp7302
Vearn
p7303
aa(lp7304
Vearn
p7305
aa(lp7306
Vgrain
p7307
aVcorn
p7308
aa(lp7309
Vship
p7310
aa(lp7311
Vearn
p7312
aa(lp7313
Vearn
p7314
aa(lp7315
Vearn
p7316
aa(lp7317
Vship
p7318
aa(lp7319
Vearn
p7320
aa(lp7321
Vearn
p7322
aa(lp7323
Vearn
p7324
aa(lp7325
Vearn
p7326
aa(lp7327
Vtrade
p7328
aa(lp7329
Vtrade
p7330
aVmoney-fx
p7331
aa(lp7332
Vearn
p7333
aa(lp7334
Vearn
p7335
aa(lp7336
Vearn
p7337
aa(lp7338
Vearn
p7339
aa(lp7340
Vtrade
p7341
aa(lp7342
Vearn
p7343
aa(lp7344
Vgrain
p7345
aVcorn
p7346
aa(lp7347
Vearn
p7348
aa(lp7349
Vcrude
p7350
aa(lp7351
Vearn
p7352
aa(lp7353
Vearn
p7354
aa(lp7355
Vtrade
p7356
aa(lp7357
Vmoney-fx
p7358
aa(lp7359
Vmoney-fx
p7360
aa(lp7361
Vearn
p7362
aa(lp7363
Vearn
p7364
aa(lp7365
Vearn
p7366
aa(lp7367
Vearn
p7368
aa(lp7369
Vearn
p7370
aa(lp7371
Vearn
p7372
aa(lp7373
Vearn
p7374
aa(lp7375
Vearn
p7376
aa(lp7377
Vearn
p7378
aa(lp7379
Vearn
p7380
aa(lp7381
Vearn
p7382
aa(lp7383
Vearn
p7384
aa(lp7385
Vearn
p7386
aa(lp7387
Vearn
p7388
aa(lp7389
Vearn
p7390
aa(lp7391
Vcrude
p7392
aa(lp7393
Vearn
p7394
aa(lp7395
Vearn
p7396
aa(lp7397
Vearn
p7398
aa(lp7399
Vtrade
p7400
aa(lp7401
Vearn
p7402
aa(lp7403
Vearn
p7404
aa(lp7405
Vtrade
p7406
aa(lp7407
Vtrade
p7408
aa(lp7409
Vship
p7410
aa(lp7411
Vearn
p7412
aa(lp7413
Vearn
p7414
aa(lp7415
Vearn
p7416
aa(lp7417
Vearn
p7418
aa(lp7419
Vearn
p7420
aa(lp7421
Vearn
p7422
aa(lp7423
Vcrude
p7424
aa(lp7425
Vearn
p7426
aa(lp7427
Vearn
p7428
aa(lp7429
Vtrade
p7430
aa(lp7431
Vcrude
p7432
aa(lp7433
Vcrude
p7434
aa(lp7435
Vearn
p7436
aa(lp7437
Vearn
p7438
aa(lp7439
Vcrude
p7440
aa(lp7441
Vearn
p7442
aa(lp7443
Vmoney-fx
p7444
aVinterest
p7445
aa(lp7446
Vtrade
p7447
aa(lp7448
Vgrain
p7449
aVcorn
p7450
aa(lp7451
Vearn
p7452
aa(lp7453
Vcrude
p7454
aa(lp7455
Vinterest
p7456
aa(lp7457
Vearn
p7458
aa(lp7459
Vmoney-fx
p7460
aa(lp7461
Vearn
p7462
aa(lp7463
Vmoney-fx
p7464
aa(lp7465
Vmoney-fx
p7466
aa(lp7467
Vtrade
p7468
aa(lp7469
Vmoney-fx
p7470
aa(lp7471
Vmoney-fx
p7472
aa(lp7473
Vmoney-fx
p7474
aVinterest
p7475
aa(lp7476
Vtrade
p7477
aa(lp7478
Vgrain
p7479
aa(lp7480
Vearn
p7481
aa(lp7482
Vearn
p7483
aa(lp7484
Vtrade
p7485
aa(lp7486
Vcrude
p7487
aVship
p7488
aa(lp7489
Vmoney-fx
p7490
aa(lp7491
Vearn
p7492
aa(lp7493
Vmoney-fx
p7494
aa(lp7495
Vearn
p7496
aa(lp7497
Vtrade
p7498
aa(lp7499
Vmoney-fx
p7500
aVinterest
p7501
aa(lp7502
Vearn
p7503
aa(lp7504
Vinterest
p7505
aa(lp7506
Vearn
p7507
aa(lp7508
Vearn
p7509
aa(lp7510
Vearn
p7511
aa(lp7512
Vmoney-fx
p7513
aa(lp7514
Vtrade
p7515
aa(lp7516
Vtrade
p7517
aa(lp7518
Vtrade
p7519
aa(lp7520
Vmoney-fx
p7521
aa(lp7522
Vearn
p7523
aa(lp7524
Vearn
p7525
aa(lp7526
Vtrade
p7527
aa(lp7528
Vmoney-fx
p7529
aa(lp7530
Vtrade
p7531
aa(lp7532
Vtrade
p7533
aa(lp7534
Vtrade
p7535
aa(lp7536
Vearn
p7537
aa(lp7538
Vgrain
p7539
aa(lp7540
Vgrain
p7541
aVwheat
p7542
aa(lp7543
Vtrade
p7544
aa(lp7545
Vmoney-fx
p7546
aa(lp7547
Vgrain
p7548
aVwheat
p7549
aa(lp7550
Vmoney-fx
p7551
aa(lp7552
Vtrade
p7553
aVinterest
p7554
aVmoney-fx
p7555
aa(lp7556
Vmoney-fx
p7557
aa(lp7558
Vgrain
p7559
aVwheat
p7560
aa(lp7561
Vtrade
p7562
aa(lp7563
Vmoney-fx
p7564
aa(lp7565
Vcrude
p7566
aVship
p7567
aa(lp7568
Vearn
p7569
aa(lp7570
Vearn
p7571
aa(lp7572
Vearn
p7573
aa(lp7574
Vearn
p7575
aa(lp7576
Vtrade
p7577
aa(lp7578
Vearn
p7579
aa(lp7580
Vtrade
p7581
aa(lp7582
Vearn
p7583
aa(lp7584
Vearn
p7585
aa(lp7586
Vtrade
p7587
aa(lp7588
Vearn
p7589
aa(lp7590
Vearn
p7591
aa(lp7592
Vinterest
p7593
aa(lp7594
Vtrade
p7595
aa(lp7596
Vtrade
p7597
aVinterest
p7598
aVmoney-fx
p7599
aa(lp7600
Vtrade
p7601
aVcrude
p7602
aa(lp7603
Vmoney-fx
p7604
aa(lp7605
Vmoney-fx
p7606
aa(lp7607
Vmoney-fx
p7608
aVinterest
p7609
aa(lp7610
Vmoney-fx
p7611
aa(lp7612
Vearn
p7613
aa(lp7614
Vearn
p7615
aa(lp7616
Vmoney-fx
p7617
aa(lp7618
Vmoney-fx
p7619
aVtrade
p7620
aa(lp7621
Vgrain
p7622
aVcorn
p7623
aVwheat
p7624
aa(lp7625
Vearn
p7626
aa(lp7627
Vearn
p7628
aa(lp7629
Vmoney-fx
p7630
aa(lp7631
Vearn
p7632
aa(lp7633
Vearn
p7634
aa(lp7635
Vearn
p7636
aa(lp7637
Vmoney-fx
p7638
aa(lp7639
Vearn
p7640
aa(lp7641
Vearn
p7642
aa(lp7643
Vearn
p7644
aa(lp7645
Vtrade
p7646
aa(lp7647
Vearn
p7648
aa(lp7649
Vearn
p7650
aa(lp7651
Vearn
p7652
aa(lp7653
Vship
p7654
aa(lp7655
Vgrain
p7656
aa(lp7657
Vearn
p7658
aa(lp7659
Vcrude
p7660
aa(lp7661
Vearn
p7662
aa(lp7663
Vmoney-fx
p7664
aa(lp7665
Vearn
p7666
aa(lp7667
Vearn
p7668
aa(lp7669
Vearn
p7670
aa(lp7671
Vearn
p7672
aa(lp7673
Vearn
p7674
aa(lp7675
Vearn
p7676
aa(lp7677
Vearn
p7678
aa(lp7679
Vinterest
p7680
aa(lp7681
Vmoney-fx
p7682
aa(lp7683
Vcrude
p7684
aa(lp7685
Vearn
p7686
aa(lp7687
Vmoney-fx
p7688
aa(lp7689
Vearn
p7690
aa(lp7691
Vtrade
p7692
aVmoney-fx
p7693
aa(lp7694
Vgrain
p7695
aVcorn
p7696
aa(lp7697
Vearn
p7698
aa(lp7699
Vearn
p7700
aa(lp7701
Vearn
p7702
aa(lp7703
Vearn
p7704
aa(lp7705
Vearn
p7706
aa(lp7707
Vearn
p7708
aa(lp7709
Vearn
p7710
aa(lp7711
Vinterest
p7712
aa(lp7713
Vearn
p7714
aa(lp7715
Vmoney-fx
p7716
aa(lp7717
Vearn
p7718
aa(lp7719
Vearn
p7720
aa(lp7721
Vinterest
p7722
aa(lp7723
Vgrain
p7724
aVcorn
p7725
aa(lp7726
Vearn
p7727
aa(lp7728
Vearn
p7729
aa(lp7730
Vearn
p7731
aa(lp7732
Vearn
p7733
aa(lp7734
Vearn
p7735
aa(lp7736
Vearn
p7737
aa(lp7738
Vtrade
p7739
aa(lp7740
Vearn
p7741
aa(lp7742
Vcrude
p7743
aa(lp7744
Vearn
p7745
aa(lp7746
Vearn
p7747
aa(lp7748
Vearn
p7749
aa(lp7750
Vearn
p7751
aa(lp7752
Vearn
p7753
aa(lp7754
Vearn
p7755
aa(lp7756
Vearn
p7757
aa(lp7758
Vship
p7759
aa(lp7760
Vearn
p7761
aa(lp7762
Vmoney-fx
p7763
aa(lp7764
Vearn
p7765
aa(lp7766
Vearn
p7767
aa(lp7768
Vearn
p7769
aa(lp7770
Vearn
p7771
aa(lp7772
Vearn
p7773
aa(lp7774
Vearn
p7775
aa(lp7776
Vearn
p7777
aa(lp7778
Vearn
p7779
aa(lp7780
Vearn
p7781
aa(lp7782
Vearn
p7783
aa(lp7784
Vmoney-fx
p7785
aa(lp7786
Vearn
p7787
aa(lp7788
Vcrude
p7789
aa(lp7790
Vcrude
p7791
aa(lp7792
Vmoney-fx
p7793
aa(lp7794
Vearn
p7795
aa(lp7796
Vearn
p7797
aa(lp7798
Vearn
p7799
aa(lp7800
Vearn
p7801
aa(lp7802
Vmoney-fx
p7803
aVinterest
p7804
aa(lp7805
Vearn
p7806
aa(lp7807
Vearn
p7808
aa(lp7809
Vearn
p7810
aa(lp7811
Vearn
p7812
aa(lp7813
Vearn
p7814
aa(lp7815
Vearn
p7816
aa(lp7817
Vearn
p7818
aa(lp7819
Vcrude
p7820
aa(lp7821
Vearn
p7822
aa(lp7823
Vearn
p7824
aa(lp7825
Vearn
p7826
aa(lp7827
Vearn
p7828
aa(lp7829
Vearn
p7830
aa(lp7831
Vearn
p7832
aa(lp7833
Vearn
p7834
aa(lp7835
Vgrain
p7836
aVwheat
p7837
aVcorn
p7838
aa(lp7839
Vgrain
p7840
aa(lp7841
Vearn
p7842
aa(lp7843
Vmoney-fx
p7844
aa(lp7845
Vgrain
p7846
aVcorn
p7847
aa(lp7848
Vearn
p7849
aa(lp7850
Vinterest
p7851
aa(lp7852
Vearn
p7853
aa(lp7854
Vearn
p7855
aa(lp7856
Vearn
p7857
aa(lp7858
Vcrude
p7859
aa(lp7860
Vgrain
p7861
aVcorn
p7862
aVwheat
p7863
aa(lp7864
Vearn
p7865
aa(lp7866
Vearn
p7867
aa(lp7868
Vgrain
p7869
aVcorn
p7870
aVwheat
p7871
aa(lp7872
Vearn
p7873
aa(lp7874
Vearn
p7875
aa(lp7876
Vearn
p7877
aa(lp7878
Vearn
p7879
aa(lp7880
Vcrude
p7881
aa(lp7882
Vmoney-fx
p7883
aa(lp7884
Vcrude
p7885
aa(lp7886
Vearn
p7887
aa(lp7888
Vearn
p7889
aa(lp7890
Vcrude
p7891
aa(lp7892
Vearn
p7893
aa(lp7894
Vearn
p7895
aa(lp7896
Vearn
p7897
aa(lp7898
Vtrade
p7899
aa(lp7900
Vearn
p7901
aa(lp7902
Vearn
p7903
aa(lp7904
Vearn
p7905
aa(lp7906
Vearn
p7907
aa(lp7908
Vearn
p7909
aa(lp7910
Vearn
p7911
aa(lp7912
Vcrude
p7913
aa(lp7914
Vearn
p7915
aa(lp7916
Vearn
p7917
aa(lp7918
Vearn
p7919
aa(lp7920
Vearn
p7921
aa(lp7922
Vearn
p7923
aa(lp7924
Vearn
p7925
aa(lp7926
Vearn
p7927
aa(lp7928
Vearn
p7929
aa(lp7930
Vinterest
p7931
aa(lp7932
Vearn
p7933
aa(lp7934
Vearn
p7935
aa(lp7936
Vtrade
p7937
aa(lp7938
Vmoney-fx
p7939
aa(lp7940
Vtrade
p7941
aa(lp7942
Vtrade
p7943
aa(lp7944
Vtrade
p7945
aVgrain
p7946
aVwheat
p7947
aVcrude
p7948
aa(lp7949
Vearn
p7950
aa(lp7951
Vtrade
p7952
aa(lp7953
Vinterest
p7954
aa(lp7955
Vearn
p7956
aa(lp7957
Vearn
p7958
aa(lp7959
Vearn
p7960
aa(lp7961
Vearn
p7962
aa(lp7963
Vearn
p7964
aa(lp7965
Vearn
p7966
aa(lp7967
Vtrade
p7968
aa(lp7969
Vship
p7970
aa(lp7971
Vgrain
p7972
aVwheat
p7973
aa(lp7974
Vmoney-fx
p7975
aa(lp7976
Vearn
p7977
aa(lp7978
Vgrain
p7979
aVcorn
p7980
aa(lp7981
Vmoney-fx
p7982
aa(lp7983
Vmoney-fx
p7984
aa(lp7985
Vearn
p7986
aa(lp7987
Vmoney-fx
p7988
aa(lp7989
Vearn
p7990
aa(lp7991
Vgrain
p7992
aVcorn
p7993
aa(lp7994
Vmoney-fx
p7995
aa(lp7996
Vtrade
p7997
aa(lp7998
Vearn
p7999
aa(lp8000
Vmoney-fx
p8001
aa(lp8002
Vtrade
p8003
aa(lp8004
Vearn
p8005
aa(lp8006
Vtrade
p8007
aa(lp8008
Vmoney-fx
p8009
aa(lp8010
Vtrade
p8011
aa(lp8012
Vmoney-fx
p8013
aa(lp8014
Vmoney-fx
p8015
aa(lp8016
Vmoney-fx
p8017
aa(lp8018
Vmoney-fx
p8019
aa(lp8020
Vtrade
p8021
aa(lp8022
Vmoney-fx
p8023
aa(lp8024
Vmoney-fx
p8025
aa(lp8026
Vmoney-fx
p8027
aa(lp8028
Vtrade
p8029
aa(lp8030
Vtrade
p8031
aa(lp8032
Vtrade
p8033
aa(lp8034
Vearn
p8035
aa(lp8036
Vmoney-fx
p8037
aa(lp8038
Vearn
p8039
aa(lp8040
Vship
p8041
aa(lp8042
Vearn
p8043
aa(lp8044
Vship
p8045
aa(lp8046
Vearn
p8047
aa(lp8048
Vship
p8049
aa(lp8050
Vcrude
p8051
aVship
p8052
aa(lp8053
Vinterest
p8054
aa(lp8055
Vearn
p8056
aa(lp8057
Vearn
p8058
aa(lp8059
Vearn
p8060
aa(lp8061
Vtrade
p8062
aVgrain
p8063
aVwheat
p8064
aVcrude
p8065
aa(lp8066
Vearn
p8067
aa(lp8068
Vearn
p8069
aa(lp8070
Vmoney-fx
p8071
aa(lp8072
Vmoney-fx
p8073
aa(lp8074
Vearn
p8075
aa(lp8076
Vearn
p8077
aa(lp8078
Vearn
p8079
aa(lp8080
Vearn
p8081
aa(lp8082
Vearn
p8083
aa(lp8084
Vearn
p8085
aa(lp8086
Vearn
p8087
aa(lp8088
Vgrain
p8089
aVwheat
p8090
aa(lp8091
Vearn
p8092
aa(lp8093
Vearn
p8094
aa(lp8095
Vcrude
p8096
aVship
p8097
aa(lp8098
Vtrade
p8099
aa(lp8100
Vearn
p8101
aa(lp8102
Vinterest
p8103
aa(lp8104
Vearn
p8105
aa(lp8106
Vearn
p8107
aa(lp8108
Vmoney-fx
p8109
aa(lp8110
Vearn
p8111
aa(lp8112
Vearn
p8113
aa(lp8114
Vgrain
p8115
aVcorn
p8116
aa(lp8117
Vcorn
p8118
aVgrain
p8119
aa(lp8120
Vgrain
p8121
aVwheat
p8122
aa(lp8123
Vearn
p8124
aa(lp8125
Vearn
p8126
aa(lp8127
Vearn
p8128
aa(lp8129
Vinterest
p8130
aVmoney-fx
p8131
aa(lp8132
Vearn
p8133
aa(lp8134
Vearn
p8135
aa(lp8136
Vgrain
p8137
aVcorn
p8138
aVwheat
p8139
aa(lp8140
Vtrade
p8141
aa(lp8142
Vearn
p8143
aa(lp8144
Vearn
p8145
aa(lp8146
Vtrade
p8147
aa(lp8148
Vearn
p8149
aa(lp8150
Vearn
p8151
aa(lp8152
Vearn
p8153
aa(lp8154
Vearn
p8155
aa(lp8156
Vcrude
p8157
aVship
p8158
aa(lp8159
Vearn
p8160
aa(lp8161
Vearn
p8162
aa(lp8163
Vinterest
p8164
aa(lp8165
Vmoney-fx
p8166
aa(lp8167
Vearn
p8168
aa(lp8169
Vearn
p8170
aa(lp8171
Vearn
p8172
aa(lp8173
Vship
p8174
aa(lp8175
Vearn
p8176
aa(lp8177
Vearn
p8178
aa(lp8179
Vearn
p8180
aa(lp8181
Vearn
p8182
aa(lp8183
Vcrude
p8184
aa(lp8185
Vwheat
p8186
aVgrain
p8187
aa(lp8188
Vearn
p8189
aa(lp8190
Vship
p8191
aa(lp8192
Vcrude
p8193
aVship
p8194
aa(lp8195
Vearn
p8196
aa(lp8197
Vearn
p8198
aa(lp8199
Vearn
p8200
aa(lp8201
Vearn
p8202
aa(lp8203
Vearn
p8204
aa(lp8205
Vmoney-fx
p8206
aa(lp8207
Vtrade
p8208
aa(lp8209
Vearn
p8210
aa(lp8211
Vearn
p8212
aa(lp8213
Vearn
p8214
aa(lp8215
Vearn
p8216
aa(lp8217
Vmoney-fx
p8218
aa(lp8219
Vmoney-fx
p8220
aa(lp8221
Vship
p8222
aVcrude
p8223
aa(lp8224
Vcrude
p8225
aVship
p8226
aa(lp8227
Vmoney-fx
p8228
aa(lp8229
Vtrade
p8230
aa(lp8231
Vtrade
p8232
aa(lp8233
Vship
p8234
aVcrude
p8235
aa(lp8236
Vcrude
p8237
aa(lp8238
Vmoney-fx
p8239
aa(lp8240
Vmoney-fx
p8241
aa(lp8242
Vmoney-fx
p8243
aa(lp8244
Vship
p8245
aVcrude
p8246
aa(lp8247
Vtrade
p8248
aa(lp8249
Vtrade
p8250
aVgrain
p8251
aa(lp8252
Vearn
p8253
aa(lp8254
Vearn
p8255
aa(lp8256
Vmoney-fx
p8257
aa(lp8258
Vmoney-fx
p8259
aa(lp8260
Vmoney-fx
p8261
aa(lp8262
Vmoney-fx
p8263
aa(lp8264
Vmoney-fx
p8265
aa(lp8266
Vmoney-fx
p8267
aa(lp8268
Vmoney-fx
p8269
aa(lp8270
Vmoney-fx
p8271
aa(lp8272
Vmoney-fx
p8273
aa(lp8274
Vmoney-fx
p8275
aa(lp8276
Vtrade
p8277
aa(lp8278
Vcrude
p8279
aa(lp8280
Vmoney-fx
p8281
aa(lp8282
Vmoney-fx
p8283
aa(lp8284
Vmoney-fx
p8285
aa(lp8286
Vearn
p8287
aa(lp8288
Vearn
p8289
aa(lp8290
Vmoney-fx
p8291
aa(lp8292
Vcrude
p8293
aa(lp8294
Vtrade
p8295
aa(lp8296
Vmoney-fx
p8297
aa(lp8298
Vearn
p8299
aa(lp8300
Vgrain
p8301
aVcorn
p8302
aa(lp8303
Vearn
p8304
aa(lp8305
Vearn
p8306
aa(lp8307
Vmoney-fx
p8308
aa(lp8309
Vmoney-fx
p8310
aa(lp8311
Vearn
p8312
aa(lp8313
Vship
p8314
aa(lp8315
Vmoney-fx
p8316
aa(lp8317
Vmoney-fx
p8318
aa(lp8319
Vmoney-fx
p8320
aa(lp8321
Vmoney-fx
p8322
aa(lp8323
Vearn
p8324
aa(lp8325
Vearn
p8326
aa(lp8327
Vship
p8328
aa(lp8329
Vmoney-fx
p8330
aa(lp8331
Vcrude
p8332
aa(lp8333
Vmoney-fx
p8334
aa(lp8335
Vmoney-fx
p8336
aa(lp8337
Vmoney-fx
p8338
aa(lp8339
Vmoney-fx
p8340
aa(lp8341
Vmoney-fx
p8342
aa(lp8343
Vtrade
p8344
aa(lp8345
Vmoney-fx
p8346
aa(lp8347
Vmoney-fx
p8348
aa(lp8349
Vtrade
p8350
aVmoney-fx
p8351
aa(lp8352
Vmoney-fx
p8353
aa(lp8354
Vmoney-fx
p8355
aa(lp8356
Vtrade
p8357
aa(lp8358
Vmoney-fx
p8359
aVtrade
p8360
aa(lp8361
Vtrade
p8362
aa(lp8363
Vmoney-fx
p8364
aa(lp8365
Vearn
p8366
aa(lp8367
Vmoney-fx
p8368
aa(lp8369
Vcrude
p8370
aVship
p8371
aa(lp8372
Vship
p8373
aa(lp8374
Vmoney-fx
p8375
aa(lp8376
Vearn
p8377
aa(lp8378
Vmoney-fx
p8379
aVtrade
p8380
aa(lp8381
Vmoney-fx
p8382
aa(lp8383
Vmoney-fx
p8384
aa(lp8385
Vearn
p8386
aa(lp8387
Vearn
p8388
aa(lp8389
Vtrade
p8390
aa(lp8391
Vearn
p8392
aa(lp8393
Vgrain
p8394
aVwheat
p8395
aa(lp8396
Vearn
p8397
aa(lp8398
Vearn
p8399
aa(lp8400
Vearn
p8401
aa(lp8402
Vearn
p8403
aa(lp8404
Vearn
p8405
aa(lp8406
Vcrude
p8407
aa(lp8408
Vearn
p8409
aa(lp8410
Vearn
p8411
aa(lp8412
Vearn
p8413
aa(lp8414
Vearn
p8415
aa(lp8416
Vearn
p8417
aa(lp8418
Vmoney-fx
p8419
aa(lp8420
Vmoney-fx
p8421
aa(lp8422
Vearn
p8423
aa(lp8424
Vcrude
p8425
aa(lp8426
Vearn
p8427
aa(lp8428
Vearn
p8429
aa(lp8430
Vgrain
p8431
aVwheat
p8432
aVcorn
p8433
aa(lp8434
Vearn
p8435
aa(lp8436
Vearn
p8437
aa(lp8438
Vearn
p8439
aa(lp8440
Vearn
p8441
aa(lp8442
Vearn
p8443
aa(lp8444
Vearn
p8445
aa(lp8446
Vearn
p8447
aa(lp8448
Vtrade
p8449
aa(lp8450
Vearn
p8451
aa(lp8452
Vmoney-fx
p8453
aa(lp8454
Vearn
p8455
aa(lp8456
Vearn
p8457
aa(lp8458
Vearn
p8459
aa(lp8460
Vearn
p8461
aa(lp8462
Vearn
p8463
aa(lp8464
Vearn
p8465
aa(lp8466
Vearn
p8467
aa(lp8468
Vearn
p8469
aa(lp8470
Vearn
p8471
aa(lp8472
Vearn
p8473
aa(lp8474
Vearn
p8475
aa(lp8476
Vcrude
p8477
aa(lp8478
Vgrain
p8479
aVwheat
p8480
aVcorn
p8481
aa(lp8482
Vearn
p8483
aa(lp8484
Vearn
p8485
aa(lp8486
Vearn
p8487
aa(lp8488
Vearn
p8489
aa(lp8490
Vearn
p8491
aa(lp8492
Vearn
p8493
aa(lp8494
Vearn
p8495
aa(lp8496
Vearn
p8497
aa(lp8498
Vearn
p8499
aa(lp8500
Vmoney-fx
p8501
aa(lp8502
Vcrude
p8503
aa(lp8504
Vgrain
p8505
aVwheat
p8506
aVcorn
p8507
aa(lp8508
Vearn
p8509
aa(lp8510
Vearn
p8511
aa(lp8512
Vearn
p8513
aa(lp8514
Vcrude
p8515
aa(lp8516
Vearn
p8517
aa(lp8518
Vearn
p8519
aa(lp8520
Vearn
p8521
aa(lp8522
Vearn
p8523
aa(lp8524
Vearn
p8525
aa(lp8526
Vearn
p8527
aa(lp8528
Vgrain
p8529
aVwheat
p8530
aa(lp8531
Vearn
p8532
aa(lp8533
Vearn
p8534
aa(lp8535
Vearn
p8536
aa(lp8537
Vearn
p8538
aa(lp8539
Vearn
p8540
aa(lp8541
Vmoney-fx
p8542
aa(lp8543
Vearn
p8544
aa(lp8545
Vgrain
p8546
aa(lp8547
Vtrade
p8548
aa(lp8549
Vinterest
p8550
aa(lp8551
Vgrain
p8552
aVwheat
p8553
aVcorn
p8554
aa(lp8555
Vearn
p8556
aa(lp8557
Vearn
p8558
aa(lp8559
Vgrain
p8560
aVwheat
p8561
aVcorn
p8562
aa(lp8563
Vearn
p8564
aa(lp8565
Vcrude
p8566
aa(lp8567
Vmoney-fx
p8568
aa(lp8569
Vearn
p8570
aa(lp8571
Vearn
p8572
aa(lp8573
Vearn
p8574
aa(lp8575
Vearn
p8576
aa(lp8577
Vearn
p8578
aa(lp8579
Vearn
p8580
aa(lp8581
Vcrude
p8582
aa(lp8583
Vgrain
p8584
aVwheat
p8585
aa(lp8586
Vmoney-fx
p8587
aa(lp8588
Vearn
p8589
aa(lp8590
Vearn
p8591
aa(lp8592
Vearn
p8593
aa(lp8594
Vearn
p8595
aa(lp8596
Vmoney-fx
p8597
aa(lp8598
Vearn
p8599
aa(lp8600
Vcrude
p8601
aa(lp8602
Vearn
p8603
aa(lp8604
Vearn
p8605
aa(lp8606
Vearn
p8607
aa(lp8608
Vearn
p8609
aa(lp8610
Vearn
p8611
aa(lp8612
Vearn
p8613
aa(lp8614
Vtrade
p8615
aa(lp8616
Vtrade
p8617
aa(lp8618
Vearn
p8619
aa(lp8620
Vmoney-fx
p8621
aa(lp8622
Vearn
p8623
aa(lp8624
Vtrade
p8625
aa(lp8626
Vmoney-fx
p8627
aVinterest
p8628
aa(lp8629
Vmoney-fx
p8630
aa(lp8631
Vearn
p8632
aa(lp8633
Vgrain
p8634
aVwheat
p8635
aa(lp8636
Vmoney-fx
p8637
aVtrade
p8638
aa(lp8639
Vearn
p8640
aa(lp8641
Vmoney-fx
p8642
aa(lp8643
Vcrude
p8644
aa(lp8645
Vgrain
p8646
aa(lp8647
Vearn
p8648
aa(lp8649
Vearn
p8650
aa(lp8651
Vtrade
p8652
aa(lp8653
Vgrain
p8654
aVwheat
p8655
aa(lp8656
Vtrade
p8657
aa(lp8658
Vearn
p8659
aa(lp8660
Vmoney-fx
p8661
aa(lp8662
Vtrade
p8663
aa(lp8664
Vcrude
p8665
aa(lp8666
Vearn
p8667
aa(lp8668
Vmoney-fx
p8669
aa(lp8670
Vmoney-fx
p8671
aVinterest
p8672
aa(lp8673
Vearn
p8674
aa(lp8675
Vearn
p8676
aa(lp8677
Vmoney-fx
p8678
aVinterest
p8679
aa(lp8680
Vearn
p8681
aa(lp8682
Vship
p8683
aa(lp8684
Vtrade
p8685
aa(lp8686
Vmoney-fx
p8687
aa(lp8688
Vtrade
p8689
aa(lp8690
Vmoney-fx
p8691
aVinterest
p8692
aa(lp8693
Vgrain
p8694
aVcorn
p8695
aa(lp8696
Vearn
p8697
aa(lp8698
Vship
p8699
aa(lp8700
Vearn
p8701
aa(lp8702
Vearn
p8703
aa(lp8704
Vmoney-fx
p8705
aVtrade
p8706
aa(lp8707
Vearn
p8708
aa(lp8709
Vearn
p8710
aa(lp8711
Vmoney-fx
p8712
aa(lp8713
Vtrade
p8714
aa(lp8715
Vmoney-fx
p8716
aa(lp8717
Vearn
p8718
aa(lp8719
Vearn
p8720
aa(lp8721
Vearn
p8722
aa(lp8723
Vearn
p8724
aa(lp8725
Vearn
p8726
aa(lp8727
Vearn
p8728
aa(lp8729
Vearn
p8730
aa(lp8731
Vinterest
p8732
aa(lp8733
Vtrade
p8734
aa(lp8735
Vgrain
p8736
aVwheat
p8737
aa(lp8738
Vearn
p8739
aa(lp8740
Vearn
p8741
aa(lp8742
Vmoney-fx
p8743
aa(lp8744
Vearn
p8745
aa(lp8746
Vearn
p8747
aa(lp8748
Vearn
p8749
aa(lp8750
Vearn
p8751
aa(lp8752
Vearn
p8753
aa(lp8754
Vgrain
p8755
aVwheat
p8756
aa(lp8757
Vcrude
p8758
aa(lp8759
Vtrade
p8760
aa(lp8761
Vearn
p8762
aa(lp8763
Vtrade
p8764
aa(lp8765
Vearn
p8766
aa(lp8767
Vearn
p8768
aa(lp8769
Vmoney-fx
p8770
aVinterest
p8771
aa(lp8772
Vearn
p8773
aa(lp8774
Vearn
p8775
aa(lp8776
Vgrain
p8777
aVwheat
p8778
aa(lp8779
Vearn
p8780
aa(lp8781
Vtrade
p8782
aa(lp8783
Vship
p8784
aa(lp8785
Vearn
p8786
aVcrude
p8787
aa(lp8788
Vtrade
p8789
aa(lp8790
Vgrain
p8791
aVwheat
p8792
aVcorn
p8793
aa(lp8794
Vearn
p8795
aa(lp8796
Vearn
p8797
aa(lp8798
Vtrade
p8799
aa(lp8800
Vgrain
p8801
aVwheat
p8802
aa(lp8803
Vearn
p8804
aa(lp8805
Vcrude
p8806
aa(lp8807
Vearn
p8808
aa(lp8809
Vearn
p8810
aa(lp8811
Vgrain
p8812
aVwheat
p8813
aa(lp8814
Vearn
p8815
aa(lp8816
Vmoney-fx
p8817
aa(lp8818
Vearn
p8819
aa(lp8820
Vtrade
p8821
aa(lp8822
Vcrude
p8823
aa(lp8824
Vinterest
p8825
aa(lp8826
Vearn
p8827
aa(lp8828
Vinterest
p8829
aa(lp8830
Vgrain
p8831
aVwheat
p8832
aa(lp8833
Vearn
p8834
aa(lp8835
Vearn
p8836
aa(lp8837
Vmoney-fx
p8838
aa(lp8839
Vearn
p8840
aa(lp8841
Vearn
p8842
aa(lp8843
Vgrain
p8844
aVcorn
p8845
aa(lp8846
Vearn
p8847
aa(lp8848
Vearn
p8849
aa(lp8850
Vcrude
p8851
aa(lp8852
Vgrain
p8853
aVwheat
p8854
aa(lp8855
Vtrade
p8856
aa(lp8857
Vmoney-fx
p8858
aa(lp8859
Vmoney-fx
p8860
aa(lp8861
Vearn
p8862
aa(lp8863
Vearn
p8864
aa(lp8865
Vcrude
p8866
aa(lp8867
Vtrade
p8868
aa(lp8869
Vtrade
p8870
aa(lp8871
Vearn
p8872
aa(lp8873
Vearn
p8874
aa(lp8875
Vearn
p8876
aa(lp8877
Vearn
p8878
aa(lp8879
Vearn
p8880
aa(lp8881
Vearn
p8882
aa(lp8883
Vtrade
p8884
aa(lp8885
Vearn
p8886
aa(lp8887
Vcrude
p8888
aa(lp8889
Vearn
p8890
aa(lp8891
Vtrade
p8892
aa(lp8893
Vearn
p8894
aa(lp8895
Vtrade
p8896
aa(lp8897
Vearn
p8898
aa(lp8899
Vearn
p8900
aa(lp8901
Vearn
p8902
aa(lp8903
Vearn
p8904
aa(lp8905
Vearn
p8906
aa(lp8907
Vearn
p8908
aa(lp8909
Vearn
p8910
aa(lp8911
Vearn
p8912
aa(lp8913
Vgrain
p8914
aa(lp8915
Vearn
p8916
aa(lp8917
Vearn
p8918
aa(lp8919
Vtrade
p8920
aa(lp8921
Vearn
p8922
aa(lp8923
Vmoney-fx
p8924
aa(lp8925
Vtrade
p8926
aa(lp8927
Vtrade
p8928
aa(lp8929
Vtrade
p8930
aa(lp8931
Vcrude
p8932
aa(lp8933
Vearn
p8934
aa(lp8935
Vearn
p8936
aa(lp8937
Vearn
p8938
aa(lp8939
Vearn
p8940
aa(lp8941
Vearn
p8942
aa(lp8943
Vearn
p8944
aa(lp8945
Vearn
p8946
aa(lp8947
Vearn
p8948
aa(lp8949
Vearn
p8950
aa(lp8951
Vtrade
p8952
aa(lp8953
Vearn
p8954
aa(lp8955
Vearn
p8956
aa(lp8957
Vtrade
p8958
aa(lp8959
Vship
p8960
aa(lp8961
Vearn
p8962
aa(lp8963
Vgrain
p8964
aVcorn
p8965
aa(lp8966
Vgrain
p8967
aVwheat
p8968
aa(lp8969
Vgrain
p8970
aVwheat
p8971
aa(lp8972
Vgrain
p8973
aVcorn
p8974
aa(lp8975
Vearn
p8976
aa(lp8977
Vearn
p8978
aa(lp8979
Vearn
p8980
aa(lp8981
Vearn
p8982
aa(lp8983
Vearn
p8984
aa(lp8985
Vearn
p8986
aa(lp8987
Vearn
p8988
aa(lp8989
Vcrude
p8990
aa(lp8991
Vearn
p8992
aa(lp8993
Vtrade
p8994
aa(lp8995
Vearn
p8996
aa(lp8997
Vearn
p8998
aa(lp8999
Vearn
p9000
aa(lp9001
Vcrude
p9002
aa(lp9003
Vgrain
p9004
aa(lp9005
Vearn
p9006
aa(lp9007
Vearn
p9008
aa(lp9009
Vgrain
p9010
aVwheat
p9011
aa(lp9012
Vearn
p9013
aa(lp9014
Vgrain
p9015
aVwheat
p9016
aa(lp9017
Vtrade
p9018
aa(lp9019
Vinterest
p9020
aa(lp9021
Vearn
p9022
aa(lp9023
Vearn
p9024
aa(lp9025
Vearn
p9026
aa(lp9027
Vearn
p9028
aa(lp9029
Vearn
p9030
aa(lp9031
Vgrain
p9032
aVwheat
p9033
aa(lp9034
Vearn
p9035
aa(lp9036
Vearn
p9037
aa(lp9038
Vearn
p9039
aa(lp9040
Vearn
p9041
aa(lp9042
Vearn
p9043
aa(lp9044
Vearn
p9045
aa(lp9046
Vearn
p9047
aa(lp9048
Vearn
p9049
aa(lp9050
Vship
p9051
aVgrain
p9052
aVwheat
p9053
aa(lp9054
Vearn
p9055
aa(lp9056
Vearn
p9057
aa(lp9058
Vcrude
p9059
aa(lp9060
Vearn
p9061
aa(lp9062
Vearn
p9063
aa(lp9064
Vearn
p9065
aa(lp9066
Vearn
p9067
aa(lp9068
Vearn
p9069
aa(lp9070
Vearn
p9071
aa(lp9072
Vearn
p9073
aa(lp9074
Vearn
p9075
aa(lp9076
Vinterest
p9077
aa(lp9078
Vearn
p9079
aa(lp9080
Vearn
p9081
aa(lp9082
Vcrude
p9083
aa(lp9084
Vearn
p9085
aa(lp9086
Vearn
p9087
aa(lp9088
Vearn
p9089
aa(lp9090
Vearn
p9091
aa(lp9092
Vearn
p9093
aa(lp9094
Vgrain
p9095
aVcorn
p9096
aa(lp9097
Vearn
p9098
aa(lp9099
Vcrude
p9100
aa(lp9101
Vearn
p9102
aa(lp9103
Vmoney-fx
p9104
aa(lp9105
Vearn
p9106
aa(lp9107
Vgrain
p9108
aVcorn
p9109
aa(lp9110
Vinterest
p9111
aa(lp9112
Vearn
p9113
aa(lp9114
Vearn
p9115
aa(lp9116
Vmoney-fx
p9117
aa(lp9118
Vearn
p9119
aa(lp9120
Vearn
p9121
aa(lp9122
Vearn
p9123
aa(lp9124
Vmoney-fx
p9125
aa(lp9126
Vgrain
p9127
aa(lp9128
Vgrain
p9129
aVcorn
p9130
aa(lp9131
Vtrade
p9132
aa(lp9133
Vmoney-fx
p9134
aa(lp9135
Vearn
p9136
aa(lp9137
Vmoney-fx
p9138
aa(lp9139
Vinterest
p9140
aVmoney-fx
p9141
aa(lp9142
Vmoney-fx
p9143
aa(lp9144
Vearn
p9145
aa(lp9146
Vmoney-fx
p9147
aa(lp9148
Vmoney-fx
p9149
aa(lp9150
Vearn
p9151
aa(lp9152
Vship
p9153
aa(lp9154
Vwheat
p9155
aVgrain
p9156
aa(lp9157
Vinterest
p9158
aa(lp9159
Vmoney-fx
p9160
aVinterest
p9161
aa(lp9162
Vinterest
p9163
aa(lp9164
Vmoney-fx
p9165
aa(lp9166
Vwheat
p9167
aVgrain
p9168
aa(lp9169
Vship
p9170
aVgrain
p9171
aa(lp9172
Vmoney-fx
p9173
aa(lp9174
Vinterest
p9175
aa(lp9176
Vearn
p9177
aa(lp9178
Vearn
p9179
aa(lp9180
Vearn
p9181
aa(lp9182
Vinterest
p9183
aa(lp9184
Vearn
p9185
aa(lp9186
Vinterest
p9187
aa(lp9188
Vgrain
p9189
aa(lp9190
Vmoney-fx
p9191
aa(lp9192
Vearn
p9193
aa(lp9194
Vearn
p9195
aa(lp9196
Vearn
p9197
aa(lp9198
Vearn
p9199
aa(lp9200
Vearn
p9201
aa(lp9202
Vwheat
p9203
aVcorn
p9204
aVgrain
p9205
aVship
p9206
aa(lp9207
Vwheat
p9208
aVgrain
p9209
aa(lp9210
Vearn
p9211
aa(lp9212
Vearn
p9213
aa(lp9214
Vinterest
p9215
aa(lp9216
Vinterest
p9217
aa(lp9218
Vearn
p9219
aa(lp9220
Vinterest
p9221
aa(lp9222
Vearn
p9223
aa(lp9224
Vship
p9225
aVgrain
p9226
aa(lp9227
Vinterest
p9228
aa(lp9229
Vearn
p9230
aa(lp9231
Vearn
p9232
aa(lp9233
Vearn
p9234
aa(lp9235
Vearn
p9236
aa(lp9237
Vinterest
p9238
aa(lp9239
Vgrain
p9240
aVcorn
p9241
aa(lp9242
Vmoney-fx
p9243
aa(lp9244
Vgrain
p9245
aVcorn
p9246
aa(lp9247
Vinterest
p9248
aa(lp9249
Vinterest
p9250
aa(lp9251
Vmoney-fx
p9252
aa(lp9253
Vmoney-fx
p9254
aa(lp9255
Vearn
p9256
aa(lp9257
Vinterest
p9258
aa(lp9259
Vcorn
p9260
aVgrain
p9261
aa(lp9262
Vearn
p9263
aa(lp9264
Vearn
p9265
aa(lp9266
Vmoney-fx
p9267
aa(lp9268
Vearn
p9269
aa(lp9270
Vearn
p9271
aa(lp9272
Vearn
p9273
aa(lp9274
Vearn
p9275
aa(lp9276
Vearn
p9277
aa(lp9278
Vearn
p9279
aa(lp9280
Vinterest
p9281
aa(lp9282
Vearn
p9283
aa(lp9284
Vearn
p9285
aa(lp9286
Vearn
p9287
aa(lp9288
Vearn
p9289
aa(lp9290
Vwheat
p9291
aVcorn
p9292
aVgrain
p9293
aa(lp9294
Vearn
p9295
aa(lp9296
Vwheat
p9297
aVgrain
p9298
aa(lp9299
Vinterest
p9300
aa(lp9301
Vearn
p9302
aa(lp9303
Vinterest
p9304
aa(lp9305
Vearn
p9306
aa(lp9307
Vinterest
p9308
aa(lp9309
Vearn
p9310
aa(lp9311
Vinterest
p9312
aa(lp9313
Vearn
p9314
aa(lp9315
Vearn
p9316
aa(lp9317
Vearn
p9318
aa(lp9319
Vearn
p9320
aa(lp9321
Vinterest
p9322
aa(lp9323
Vearn
p9324
aa(lp9325
Vearn
p9326
aa(lp9327
Vearn
p9328
aa(lp9329
Vearn
p9330
aa(lp9331
Vearn
p9332
aa(lp9333
Vcorn
p9334
aVgrain
p9335
aa(lp9336
Vcorn
p9337
aVgrain
p9338
aa(lp9339
Vearn
p9340
aa(lp9341
Vearn
p9342
aa(lp9343
Vearn
p9344
aa(lp9345
Vearn
p9346
aa(lp9347
Vearn
p9348
aa(lp9349
Vinterest
p9350
aa(lp9351
Vearn
p9352
aa(lp9353
Vearn
p9354
aa(lp9355
Vearn
p9356
aa(lp9357
Vgrain
p9358
aVship
p9359
aa(lp9360
Vinterest
p9361
aa(lp9362
Vearn
p9363
aa(lp9364
Vinterest
p9365
aa(lp9366
Vearn
p9367
aa(lp9368
Vinterest
p9369
aa(lp9370
Vinterest
p9371
aa(lp9372
Vearn
p9373
aa(lp9374
Vinterest
p9375
aa(lp9376
Vearn
p9377
aa(lp9378
Vearn
p9379
aa(lp9380
Vearn
p9381
aa(lp9382
Vmoney-fx
p9383
aa(lp9384
Vinterest
p9385
aa(lp9386
Vinterest
p9387
aa(lp9388
Vearn
p9389
aa(lp9390
Vinterest
p9391
aa(lp9392
Vmoney-fx
p9393
aa(lp9394
Vmoney-fx
p9395
aa(lp9396
Vinterest
p9397
aa(lp9398
Vearn
p9399
aa(lp9400
Vearn
p9401
aa(lp9402
Vearn
p9403
aa(lp9404
Vearn
p9405
aa(lp9406
Vearn
p9407
aa(lp9408
Vearn
p9409
aa(lp9410
Vgrain
p9411
aVcorn
p9412
aa(lp9413
Vgrain
p9414
aVship
p9415
aa(lp9416
Vship
p9417
aa(lp9418
Vearn
p9419
aa(lp9420
Vship
p9421
aa(lp9422
Vearn
p9423
aa(lp9424
Vearn
p9425
aa(lp9426
Vship
p9427
aa(lp9428
Vearn
p9429
aa(lp9430
Vmoney-fx
p9431
aa(lp9432
Vship
p9433
aa(lp9434
Vearn
p9435
aa(lp9436
Vmoney-fx
p9437
aVinterest
p9438
aa(lp9439
Vearn
p9440
aa(lp9441
Vearn
p9442
aa(lp9443
Vearn
p9444
aa(lp9445
Vgrain
p9446
aVwheat
p9447
aa(lp9448
Vinterest
p9449
aa(lp9450
Vearn
p9451
aa(lp9452
Vearn
p9453
aa(lp9454
Vearn
p9455
aa(lp9456
Vearn
p9457
aa(lp9458
Vearn
p9459
aa(lp9460
Vearn
p9461
aa(lp9462
Vearn
p9463
aa(lp9464
Vinterest
p9465
aa(lp9466
Vearn
p9467
aa(lp9468
Vinterest
p9469
aa(lp9470
Vearn
p9471
aa(lp9472
Vearn
p9473
aa(lp9474
Vearn
p9475
aa(lp9476
Vearn
p9477
aa(lp9478
Vinterest
p9479
aa(lp9480
Vship
p9481
aa(lp9482
Vinterest
p9483
aa(lp9484
Vwheat
p9485
aVgrain
p9486
aa(lp9487
Vearn
p9488
aa(lp9489
Vearn
p9490
aa(lp9491
Vinterest
p9492
aa(lp9493
Vinterest
p9494
aa(lp9495
Vgrain
p9496
aVwheat
p9497
aa(lp9498
Vearn
p9499
aa(lp9500
Vcrude
p9501
aa(lp9502
Vwheat
p9503
aVgrain
p9504
aa(lp9505
Vship
p9506
aa(lp9507
Vearn
p9508
aa(lp9509
Vinterest
p9510
aa(lp9511
Vinterest
p9512
aa(lp9513
Vearn
p9514
aa(lp9515
Vearn
p9516
aa(lp9517
Vcrude
p9518
aa(lp9519
Vearn
p9520
aa(lp9521
Vearn
p9522
aa(lp9523
Vearn
p9524
aa(lp9525
Vearn
p9526
aa(lp9527
Vearn
p9528
aa(lp9529
Vinterest
p9530
aa(lp9531
Vearn
p9532
aa(lp9533
Vearn
p9534
aa(lp9535
Vearn
p9536
aa(lp9537
Vcorn
p9538
aVgrain
p9539
aa(lp9540
Vinterest
p9541
aa(lp9542
Vearn
p9543
aa(lp9544
Vearn
p9545
aa(lp9546
Vcorn
p9547
aVgrain
p9548
aa(lp9549
Vgrain
p9550
aVwheat
p9551
aa(lp9552
Vgrain
p9553
aVship
p9554
aa(lp9555
Vinterest
p9556
aa(lp9557
Vearn
p9558
aa(lp9559
Vinterest
p9560
aa(lp9561
Vinterest
p9562
aa(lp9563
Vgrain
p9564
aa(lp9565
Vearn
p9566
aa(lp9567
Vearn
p9568
aa(lp9569
Vearn
p9570
aa(lp9571
Vearn
p9572
aa(lp9573
Vearn
p9574
aa(lp9575
Vearn
p9576
aa(lp9577
Vearn
p9578
aa(lp9579
Vgrain
p9580
aVship
p9581
aa(lp9582
Vship
p9583
aVcrude
p9584
aa(lp9585
Vgrain
p9586
aVwheat
p9587
aVcorn
p9588
aa(lp9589
Vearn
p9590
aa(lp9591
Vearn
p9592
aa(lp9593
Vearn
p9594
aa(lp9595
Vearn
p9596
aa(lp9597
Vearn
p9598
aa(lp9599
Vearn
p9600
aa(lp9601
Vearn
p9602
aa(lp9603
Vmoney-fx
p9604
aVinterest
p9605
aa(lp9606
Vearn
p9607
aa(lp9608
Vinterest
p9609
aa(lp9610
Vearn
p9611
aa(lp9612
Vtrade
p9613
aa(lp9614
Vmoney-fx
p9615
aVinterest
p9616
aa(lp9617
Vearn
p9618
aa(lp9619
Vmoney-fx
p9620
aVinterest
p9621
aa(lp9622
Vmoney-fx
p9623
aa(lp9624
Vmoney-fx
p9625
aa(lp9626
Vgrain
p9627
aVcorn
p9628
aa(lp9629
Vmoney-fx
p9630
aVinterest
p9631
aa(lp9632
Vgrain
p9633
aVwheat
p9634
aa(lp9635
Vearn
p9636
aa(lp9637
Vmoney-fx
p9638
aa(lp9639
Vgrain
p9640
aVwheat
p9641
aa(lp9642
Vearn
p9643
aa(lp9644
Vgrain
p9645
aVcorn
p9646
aa(lp9647
Vmoney-fx
p9648
aa(lp9649
Vinterest
p9650
aVmoney-fx
p9651
aa(lp9652
Vearn
p9653
aa(lp9654
Vmoney-fx
p9655
aVinterest
p9656
aa(lp9657
Vinterest
p9658
aa(lp9659
Vmoney-fx
p9660
aVinterest
p9661
aa(lp9662
Vtrade
p9663
aa(lp9664
Vgrain
p9665
aVwheat
p9666
aa(lp9667
Vearn
p9668
aa(lp9669
Vinterest
p9670
aa(lp9671
Vmoney-fx
p9672
aVinterest
p9673
aa(lp9674
Vmoney-fx
p9675
aVinterest
p9676
aa(lp9677
Vtrade
p9678
aa(lp9679
Vtrade
p9680
aa(lp9681
Vinterest
p9682
aa(lp9683
Vearn
p9684
aa(lp9685
Vearn
p9686
aa(lp9687
Vmoney-fx
p9688
aVinterest
p9689
aa(lp9690
Vinterest
p9691
aa(lp9692
Vgrain
p9693
aVwheat
p9694
aVcorn
p9695
aa(lp9696
Vmoney-fx
p9697
aVinterest
p9698
aa(lp9699
Vcrude
p9700
aa(lp9701
Vearn
p9702
aa(lp9703
Vearn
p9704
aa(lp9705
Vearn
p9706
aa(lp9707
Vinterest
p9708
aa(lp9709
Vearn
p9710
aa(lp9711
Vinterest
p9712
aa(lp9713
Vearn
p9714
aa(lp9715
Vearn
p9716
aa(lp9717
Vearn
p9718
aa(lp9719
Vearn
p9720
aa(lp9721
Vearn
p9722
aa(lp9723
Vmoney-fx
p9724
aa(lp9725
Vmoney-fx
p9726
aa(lp9727
Vearn
p9728
aa(lp9729
Vearn
p9730
aa(lp9731
Vcrude
p9732
aa(lp9733
Vgrain
p9734
aVwheat
p9735
aa(lp9736
Vearn
p9737
aa(lp9738
Vearn
p9739
aa(lp9740
Vearn
p9741
aa(lp9742
Vearn
p9743
aa(lp9744
Vmoney-fx
p9745
aVinterest
p9746
aa(lp9747
Vtrade
p9748
aa(lp9749
Vearn
p9750
aa(lp9751
Vearn
p9752
aa(lp9753
Vtrade
p9754
aa(lp9755
Vtrade
p9756
aa(lp9757
Vearn
p9758
aa(lp9759
Vearn
p9760
aa(lp9761
Vinterest
p9762
aa(lp9763
Vearn
p9764
aa(lp9765
Vearn
p9766
aa(lp9767
Vearn
p9768
aa(lp9769
Vearn
p9770
aa(lp9771
Vearn
p9772
aa(lp9773
Vgrain
p9774
aVcorn
p9775
aa(lp9776
Vgrain
p9777
aVcorn
p9778
aa(lp9779
Vmoney-fx
p9780
aa(lp9781
Vinterest
p9782
aa(lp9783
Vmoney-fx
p9784
aa(lp9785
Vcrude
p9786
aa(lp9787
Vearn
p9788
aa(lp9789
Vmoney-fx
p9790
aa(lp9791
Vtrade
p9792
aa(lp9793
Vtrade
p9794
aa(lp9795
Vtrade
p9796
aa(lp9797
Vmoney-fx
p9798
aa(lp9799
Vcrude
p9800
aa(lp9801
Vearn
p9802
aa(lp9803
Vgrain
p9804
aVwheat
p9805
aa(lp9806
Vearn
p9807
aa(lp9808
Vearn
p9809
aa(lp9810
Vtrade
p9811
aa(lp9812
Vearn
p9813
aa(lp9814
Vinterest
p9815
aa(lp9816
Vearn
p9817
aa(lp9818
Vearn
p9819
aa(lp9820
Vinterest
p9821
aa(lp9822
Vgrain
p9823
aVwheat
p9824
aa(lp9825
Vearn
p9826
aa(lp9827
Vearn
p9828
aa(lp9829
Vinterest
p9830
aVmoney-fx
p9831
aa(lp9832
Vinterest
p9833
aVmoney-fx
p9834
aa(lp9835
Vmoney-fx
p9836
aa(lp9837
Vinterest
p9838
aa(lp9839
Vearn
p9840
aa(lp9841
Vearn
p9842
aa(lp9843
Vearn
p9844
aa(lp9845
Vearn
p9846
aa(lp9847
Vmoney-fx
p9848
aa(lp9849
Vearn
p9850
aa(lp9851
Vcrude
p9852
aa(lp9853
Vearn
p9854
aa(lp9855
Vcrude
p9856
aa(lp9857
Vinterest
p9858
aa(lp9859
Vmoney-fx
p9860
aa(lp9861
Vinterest
p9862
aa(lp9863
Vgrain
p9864
aVcorn
p9865
aa(lp9866
Vinterest
p9867
aa(lp9868
Vearn
p9869
aa(lp9870
Vearn
p9871
aa(lp9872
Vgrain
p9873
aVwheat
p9874
aVcorn
p9875
aa(lp9876
Vgrain
p9877
aVcorn
p9878
aVwheat
p9879
aa(lp9880
Vgrain
p9881
aVcorn
p9882
aa(lp9883
Vearn
p9884
aa(lp9885
Vgrain
p9886
aVwheat
p9887
aVcorn
p9888
aa(lp9889
Vearn
p9890
aa(lp9891
Vgrain
p9892
aVwheat
p9893
aa(lp9894
Vgrain
p9895
aVwheat
p9896
aa(lp9897
Vinterest
p9898
aa(lp9899
Vinterest
p9900
aa(lp9901
Vmoney-fx
p9902
aVinterest
p9903
aa(lp9904
Vmoney-fx
p9905
aVinterest
p9906
aa(lp9907
Vtrade
p9908
aa(lp9909
Vship
p9910
aa(lp9911
Vwheat
p9912
aVgrain
p9913
aa(lp9914
Vgrain
p9915
aVship
p9916
aa(lp9917
Vship
p9918
aa(lp9919
Vinterest
p9920
aa(lp9921
Vcrude
p9922
aa(lp9923
Vmoney-fx
p9924
aa(lp9925
Vearn
p9926
aa(lp9927
Vmoney-fx
p9928
aa(lp9929
Vmoney-fx
p9930
aVinterest
p9931
aa(lp9932
Vmoney-fx
p9933
aa(lp9934
Vmoney-fx
p9935
aa(lp9936
Vearn
p9937
aa(lp9938
Vmoney-fx
p9939
aa(lp9940
Vwheat
p9941
aVgrain
p9942
aa(lp9943
Vcrude
p9944
aa(lp9945
Vinterest
p9946
aa(lp9947
Vmoney-fx
p9948
aa(lp9949
Vinterest
p9950
aa(lp9951
Vmoney-fx
p9952
aVinterest
p9953
aa(lp9954
Vmoney-fx
p9955
aa(lp9956
Vmoney-fx
p9957
aVinterest
p9958
aa(lp9959
Vship
p9960
aa(lp9961
Vearn
p9962
aa(lp9963
Vgrain
p9964
aa(lp9965
Vearn
p9966
aa(lp9967
Vmoney-fx
p9968
aVinterest
p9969
aa(lp9970
Vmoney-fx
p9971
aa(lp9972
Vinterest
p9973
aa(lp9974
Vtrade
p9975
aa(lp9976
Vship
p9977
aVgrain
p9978
aa(lp9979
Vearn
p9980
aa(lp9981
Vearn
p9982
aa(lp9983
Vearn
p9984
aa(lp9985
Vcorn
p9986
aVgrain
p9987
aa(lp9988
Vearn
p9989
aa(lp9990
Vmoney-fx
p9991
aa(lp9992
Vearn
p9993
aa(lp9994
Vinterest
p9995
aa(lp9996
Vinterest
p9997
aa(lp9998
Vearn
p9999
aa(lp10000
Vearn
p10001
aa(lp10002
Vwheat
p10003
aVgrain
p10004
aa(lp10005
Vinterest
p10006
aa(lp10007
Vearn
p10008
aa(lp10009
Vearn
p10010
aa(lp10011
Vearn
p10012
aa(lp10013
Vearn
p10014
aa(lp10015
Vearn
p10016
aa(lp10017
Vinterest
p10018
aa(lp10019
Vinterest
p10020
aa(lp10021
Vearn
p10022
aa(lp10023
Vearn
p10024
aa(lp10025
Vearn
p10026
aa(lp10027
Vinterest
p10028
aa(lp10029
Vmoney-fx
p10030
aVinterest
p10031
aa(lp10032
Vship
p10033
aa(lp10034
Vearn
p10035
aa(lp10036
Vcrude
p10037
aa(lp10038
Vearn
p10039
aa(lp10040
Vearn
p10041
aa(lp10042
Vwheat
p10043
aVgrain
p10044
aa(lp10045
Vearn
p10046
aa(lp10047
Vearn
p10048
aa(lp10049
Vinterest
p10050
aa(lp10051
Vearn
p10052
aa(lp10053
Vinterest
p10054
aa(lp10055
Vearn
p10056
aa(lp10057
Vearn
p10058
aa(lp10059
Vearn
p10060
aa(lp10061
Vearn
p10062
aa(lp10063
Vearn
p10064
aa(lp10065
Vtrade
p10066
aa(lp10067
Vtrade
p10068
aa(lp10069
Vtrade
p10070
aa(lp10071
Vmoney-fx
p10072
aa(lp10073
Vcrude
p10074
aa(lp10075
Vearn
p10076
aa(lp10077
Vearn
p10078
aa(lp10079
Vearn
p10080
aa(lp10081
Vgrain
p10082
aa(lp10083
Vgrain
p10084
aa(lp10085
Vship
p10086
aVcrude
p10087
aa(lp10088
Vearn
p10089
aa(lp10090
Vearn
p10091
aa(lp10092
Vearn
p10093
aa(lp10094
Vwheat
p10095
aVgrain
p10096
aa(lp10097
Vcrude
p10098
aa(lp10099
Vwheat
p10100
aVgrain
p10101
aa(lp10102
Vgrain
p10103
aa(lp10104
Vcrude
p10105
aa(lp10106
Vinterest
p10107
aa(lp10108
Vearn
p10109
aa(lp10110
Vearn
p10111
aa(lp10112
Vearn
p10113
aa(lp10114
Vcrude
p10115
aa(lp10116
Vearn
p10117
aa(lp10118
Vgrain
p10119
aVship
p10120
aa(lp10121
Vearn
p10122
aa(lp10123
Vgrain
p10124
aa(lp10125
Vearn
p10126
aa(lp10127
Vgrain
p10128
aa(lp10129
Vearn
p10130
aa(lp10131
Vearn
p10132
aa(lp10133
Vearn
p10134
aa(lp10135
Vearn
p10136
aa(lp10137
Vcrude
p10138
aa(lp10139
Vinterest
p10140
aa(lp10141
Vearn
p10142
aa(lp10143
Vgrain
p10144
aVship
p10145
aa(lp10146
Vearn
p10147
aa(lp10148
Vgrain
p10149
aVcorn
p10150
aa(lp10151
Vearn
p10152
aa(lp10153
Vgrain
p10154
aVwheat
p10155
aVcorn
p10156
aVship
p10157
aa(lp10158
Vearn
p10159
aa(lp10160
Vcrude
p10161
aa(lp10162
Vearn
p10163
aa(lp10164
Vearn
p10165
aa(lp10166
Vearn
p10167
aa(lp10168
Vearn
p10169
aa(lp10170
Vcrude
p10171
aa(lp10172
Vearn
p10173
aa(lp10174
Vearn
p10175
aa(lp10176
Vearn
p10177
aa(lp10178
Vearn
p10179
aa(lp10180
Vearn
p10181
aa(lp10182
Vearn
p10183
aa(lp10184
Vinterest
p10185
aa(lp10186
Vinterest
p10187
aa(lp10188
Vship
p10189
aa(lp10190
Vcrude
p10191
aa(lp10192
Vmoney-fx
p10193
aa(lp10194
Vmoney-fx
p10195
aa(lp10196
Vmoney-fx
p10197
aa(lp10198
Vship
p10199
aa(lp10200
Vcrude
p10201
aa(lp10202
Vmoney-fx
p10203
aa(lp10204
Vinterest
p10205
aa(lp10206
Vearn
p10207
aa(lp10208
Vcrude
p10209
aa(lp10210
Vmoney-fx
p10211
aa(lp10212
Vwheat
p10213
aVgrain
p10214
aa(lp10215
Vcrude
p10216
aa(lp10217
Vgrain
p10218
aVwheat
p10219
aa(lp10220
Vtrade
p10221
aa(lp10222
Vcrude
p10223
aa(lp10224
Vcrude
p10225
aa(lp10226
Vtrade
p10227
aa(lp10228
Vcrude
p10229
aa(lp10230
Vcrude
p10231
aa(lp10232
Vgrain
p10233
aa(lp10234
Vgrain
p10235
aVwheat
p10236
aa(lp10237
Vmoney-fx
p10238
aa(lp10239
Vinterest
p10240
aa(lp10241
Vship
p10242
aa(lp10243
Vinterest
p10244
aa(lp10245
Vearn
p10246
aa(lp10247
Vmoney-fx
p10248
aa(lp10249
Vmoney-fx
p10250
aa(lp10251
Vearn
p10252
aa(lp10253
Vgrain
p10254
aa(lp10255
Vtrade
p10256
aa(lp10257
Vmoney-fx
p10258
aa(lp10259
Vmoney-fx
p10260
aa(lp10261
Vmoney-fx
p10262
aa(lp10263
Vmoney-fx
p10264
aa(lp10265
Vcrude
p10266
aVship
p10267
aa(lp10268
Vinterest
p10269
aa(lp10270
Vmoney-fx
p10271
aa(lp10272
Vmoney-fx
p10273
aa(lp10274
Vcrude
p10275
aa(lp10276
Vearn
p10277
aa(lp10278
Vcrude
p10279
aa(lp10280
Vtrade
p10281
aa(lp10282
Vearn
p10283
aa(lp10284
Vmoney-fx
p10285
aa(lp10286
Vship
p10287
aa(lp10288
Vearn
p10289
aa(lp10290
Vearn
p10291
aa(lp10292
Vearn
p10293
aa(lp10294
Vearn
p10295
aa(lp10296
Vearn
p10297
aa(lp10298
Vearn
p10299
aa(lp10300
Vearn
p10301
aa(lp10302
Vgrain
p10303
aVwheat
p10304
aa(lp10305
Vearn
p10306
aa(lp10307
Vmoney-fx
p10308
aa(lp10309
Vwheat
p10310
aa(lp10311
Vgrain
p10312
aa(lp10313
Vmoney-fx
p10314
aa(lp10315
Vtrade
p10316
aa(lp10317
Vtrade
p10318
aa(lp10319
Vtrade
p10320
aa(lp10321
Vgrain
p10322
aVwheat
p10323
aVcorn
p10324
aa(lp10325
Vearn
p10326
aa(lp10327
Vgrain
p10328
aVwheat
p10329
aVcorn
p10330
aa(lp10331
Vmoney-fx
p10332
aVtrade
p10333
aa(lp10334
Vtrade
p10335
aa(lp10336
Vearn
p10337
aa(lp10338
Vearn
p10339
aa(lp10340
Vmoney-fx
p10341
aVtrade
p10342
aa(lp10343
Vearn
p10344
aa(lp10345
Vtrade
p10346
aa(lp10347
Vmoney-fx
p10348
aa(lp10349
Vtrade
p10350
aa(lp10351
Vmoney-fx
p10352
aa(lp10353
Vmoney-fx
p10354
aa(lp10355
Vmoney-fx
p10356
aa(lp10357
Vcrude
p10358
aVship
p10359
aa(lp10360
Vearn
p10361
aa(lp10362
Vmoney-fx
p10363
aa(lp10364
Vmoney-fx
p10365
aa(lp10366
Vtrade
p10367
aa(lp10368
Vmoney-fx
p10369
aa(lp10370
Vmoney-fx
p10371
aa(lp10372
Vearn
p10373
aa(lp10374
Vearn
p10375
aa(lp10376
Vearn
p10377
aa(lp10378
Vearn
p10379
aa(lp10380
Vtrade
p10381
aa(lp10382
Vgrain
p10383
aVwheat
p10384
aa(lp10385
Vmoney-fx
p10386
aa(lp10387
Vearn
p10388
aa(lp10389
Vearn
p10390
aa(lp10391
Vmoney-fx
p10392
aa(lp10393
Vearn
p10394
aa(lp10395
Vearn
p10396
aa(lp10397
Vtrade
p10398
aa(lp10399
Vmoney-fx
p10400
aa(lp10401
Vship
p10402
aVcrude
p10403
aa(lp10404
Vgrain
p10405
aa(lp10406
Vinterest
p10407
aa(lp10408
Vtrade
p10409
aa(lp10410
Vinterest
p10411
aa(lp10412
Vearn
p10413
aa(lp10414
Vearn
p10415
aa(lp10416
Vinterest
p10417
aa(lp10418
Vearn
p10419
aa(lp10420
Vearn
p10421
aa(lp10422
Vgrain
p10423
aa(lp10424
Vearn
p10425
aa(lp10426
Vearn
p10427
aa(lp10428
Vearn
p10429
aa(lp10430
Vgrain
p10431
aa(lp10432
Vgrain
p10433
aVship
p10434
aa(lp10435
Vearn
p10436
aa(lp10437
Vgrain
p10438
aa(lp10439
Vearn
p10440
aa(lp10441
Vcrude
p10442
aa(lp10443
Vearn
p10444
aa(lp10445
Vearn
p10446
aa(lp10447
Vearn
p10448
aa(lp10449
Vgrain
p10450
aVcorn
p10451
aa(lp10452
Vship
p10453
aVgrain
p10454
aVwheat
p10455
aa(lp10456
Vgrain
p10457
aVwheat
p10458
aa(lp10459
Vgrain
p10460
aa(lp10461
Vearn
p10462
aa(lp10463
Vearn
p10464
aa(lp10465
Vearn
p10466
aa(lp10467
Vearn
p10468
aa(lp10469
Vship
p10470
aa(lp10471
Vearn
p10472
aa(lp10473
Vearn
p10474
aa(lp10475
Vearn
p10476
aa(lp10477
Vearn
p10478
aa(lp10479
Vearn
p10480
aa(lp10481
Vearn
p10482
aa(lp10483
Vearn
p10484
aa(lp10485
Vearn
p10486
aa(lp10487
Vearn
p10488
aa(lp10489
Vearn
p10490
aa(lp10491
Vearn
p10492
aa(lp10493
Vearn
p10494
aa(lp10495
Vearn
p10496
aa(lp10497
Vinterest
p10498
aa(lp10499
Vearn
p10500
aa(lp10501
Vmoney-fx
p10502
aa(lp10503
Vearn
p10504
aa(lp10505
Vearn
p10506
aa(lp10507
Vship
p10508
aa(lp10509
Vmoney-fx
p10510
aa(lp10511
Vgrain
p10512
aVship
p10513
aa(lp10514
Vearn
p10515
aa(lp10516
Vcrude
p10517
aa(lp10518
Vgrain
p10519
aVship
p10520
aa(lp10521
Vcrude
p10522
aa(lp10523
Vgrain
p10524
aa(lp10525
Vship
p10526
aVcrude
p10527
aa(lp10528
Vgrain
p10529
aVwheat
p10530
aa(lp10531
Vgrain
p10532
aVwheat
p10533
aa(lp10534
Vgrain
p10535
aVwheat
p10536
aa(lp10537
Vearn
p10538
aa(lp10539
Vcrude
p10540
aa(lp10541
Vtrade
p10542
aa(lp10543
Vearn
p10544
aa(lp10545
Vearn
p10546
aa(lp10547
Vearn
p10548
aa(lp10549
Vearn
p10550
aa(lp10551
Vmoney-fx
p10552
aa(lp10553
Vearn
p10554
aa(lp10555
Vmoney-fx
p10556
aa(lp10557
Vmoney-fx
p10558
aVtrade
p10559
aa(lp10560
Vmoney-fx
p10561
aa(lp10562
Vmoney-fx
p10563
aa(lp10564
Vmoney-fx
p10565
aa(lp10566
Vship
p10567
aa(lp10568
Vtrade
p10569
aa(lp10570
Vgrain
p10571
aa(lp10572
Vcrude
p10573
aa(lp10574
Vtrade
p10575
aVgrain
p10576
aVcorn
p10577
aa(lp10578
Vship
p10579
aa(lp10580
Vgrain
p10581
aVwheat
p10582
aa(lp10583
Vmoney-fx
p10584
aVinterest
p10585
aa(lp10586
Vtrade
p10587
aVgrain
p10588
aVcorn
p10589
aa(lp10590
Vearn
p10591
aa(lp10592
Vearn
p10593
aa(lp10594
Vmoney-fx
p10595
aVinterest
p10596
aa(lp10597
Vtrade
p10598
aa(lp10599
Vearn
p10600
aa(lp10601
Vearn
p10602
aa(lp10603
Vearn
p10604
aa(lp10605
Vearn
p10606
aa(lp10607
Vtrade
p10608
aa(lp10609
Vinterest
p10610
aVmoney-fx
p10611
aa(lp10612
Vearn
p10613
aa(lp10614
Vearn
p10615
aa(lp10616
Vtrade
p10617
aa(lp10618
Vearn
p10619
aa(lp10620
Vtrade
p10621
aa(lp10622
Vmoney-fx
p10623
aa(lp10624
Vmoney-fx
p10625
aVinterest
p10626
aa(lp10627
Vearn
p10628
aa(lp10629
Vearn
p10630
aa(lp10631
Vmoney-fx
p10632
aa(lp10633
Vearn
p10634
aa(lp10635
Vearn
p10636
aa(lp10637
Vearn
p10638
aa(lp10639
Vship
p10640
aa(lp10641
Vearn
p10642
aa(lp10643
Vship
p10644
aa(lp10645
Vearn
p10646
aa(lp10647
Vearn
p10648
aa(lp10649
Vearn
p10650
aa(lp10651
Vmoney-fx
p10652
aVinterest
p10653
aa(lp10654
Vearn
p10655
aa(lp10656
Vearn
p10657
aa(lp10658
Vearn
p10659
aa(lp10660
Vearn
p10661
aa(lp10662
Vearn
p10663
aa(lp10664
Vearn
p10665
aa(lp10666
Vearn
p10667
aa(lp10668
Vearn
p10669
aa(lp10670
Vearn
p10671
aa(lp10672
Vearn
p10673
aa(lp10674
Vearn
p10675
aa(lp10676
Vmoney-fx
p10677
aa(lp10678
Vearn
p10679
aa(lp10680
Vearn
p10681
aa(lp10682
Vearn
p10683
aa(lp10684
Vearn
p10685
aa(lp10686
Vearn
p10687
aa(lp10688
Vearn
p10689
aa(lp10690
Vearn
p10691
aa(lp10692
Vearn
p10693
aa(lp10694
Vearn
p10695
aa(lp10696
Vearn
p10697
aa(lp10698
Vearn
p10699
aa(lp10700
Vearn
p10701
aa(lp10702
Vearn
p10703
aa(lp10704
Vearn
p10705
aa(lp10706
Vearn
p10707
aa(lp10708
Vearn
p10709
aa(lp10710
Vearn
p10711
aa(lp10712
Vgrain
p10713
aVcorn
p10714
aa(lp10715
Vgrain
p10716
aVcorn
p10717
aVwheat
p10718
aa(lp10719
Vearn
p10720
aa(lp10721
Vmoney-fx
p10722
aa(lp10723
Vinterest
p10724
aa(lp10725
Vearn
p10726
aa(lp10727
Vearn
p10728
aa(lp10729
Vearn
p10730
aa(lp10731
Vearn
p10732
aa(lp10733
Vcrude
p10734
aVearn
p10735
aa(lp10736
Vearn
p10737
aa(lp10738
Vearn
p10739
aa(lp10740
Vearn
p10741
aa(lp10742
Vearn
p10743
aa(lp10744
Vearn
p10745
aa(lp10746
Vearn
p10747
aa(lp10748
Vearn
p10749
aa(lp10750
Vearn
p10751
aa(lp10752
Vearn
p10753
aa(lp10754
Vinterest
p10755
aa(lp10756
Vearn
p10757
aa(lp10758
Vearn
p10759
aa(lp10760
Vinterest
p10761
aa(lp10762
Vgrain
p10763
aVwheat
p10764
aa(lp10765
Vearn
p10766
aa(lp10767
Vearn
p10768
aa(lp10769
Vgrain
p10770
aVcorn
p10771
aa(lp10772
Vearn
p10773
aa(lp10774
Vearn
p10775
aa(lp10776
Vearn
p10777
aa(lp10778
Vearn
p10779
aa(lp10780
Vearn
p10781
aa(lp10782
Vearn
p10783
aa(lp10784
Vearn
p10785
aa(lp10786
Vearn
p10787
aa(lp10788
Vgrain
p10789
aVwheat
p10790
aa(lp10791
Vearn
p10792
aa(lp10793
Vearn
p10794
aa(lp10795
Vearn
p10796
aa(lp10797
Vearn
p10798
aa(lp10799
Vearn
p10800
aa(lp10801
Vearn
p10802
aa(lp10803
Vtrade
p10804
aa(lp10805
Vearn
p10806
aa(lp10807
Vearn
p10808
aa(lp10809
Vtrade
p10810
aa(lp10811
Vearn
p10812
aa(lp10813
Vearn
p10814
aa(lp10815
Vearn
p10816
aa(lp10817
Vearn
p10818
aa(lp10819
Vearn
p10820
aa(lp10821
Vearn
p10822
aa(lp10823
Vearn
p10824
aa(lp10825
Vearn
p10826
aa(lp10827
Vearn
p10828
aa(lp10829
Vearn
p10830
aa(lp10831
Vcrude
p10832
aa(lp10833
Vearn
p10834
aa(lp10835
Vearn
p10836
aa(lp10837
Vearn
p10838
aa(lp10839
Vearn
p10840
aa(lp10841
Vmoney-fx
p10842
aVinterest
p10843
aa(lp10844
Vearn
p10845
aa(lp10846
Vearn
p10847
aa(lp10848
Vearn
p10849
aa(lp10850
Vtrade
p10851
aa(lp10852
Vearn
p10853
aa(lp10854
Vearn
p10855
aa(lp10856
Vcrude
p10857
aa(lp10858
Vearn
p10859
aa(lp10860
Vmoney-fx
p10861
aa(lp10862
Vcrude
p10863
aVearn
p10864
aa(lp10865
Vearn
p10866
aa(lp10867
Vearn
p10868
aa(lp10869
Vcrude
p10870
aa(lp10871
Vearn
p10872
aa(lp10873
Vearn
p10874
aa(lp10875
Vmoney-fx
p10876
aa(lp10877
Vearn
p10878
aa(lp10879
Vearn
p10880
aa(lp10881
Vtrade
p10882
aa(lp10883
Vearn
p10884
aa(lp10885
Vearn
p10886
aa(lp10887
Vearn
p10888
aa(lp10889
Vgrain
p10890
aVwheat
p10891
aa(lp10892
Vgrain
p10893
aVwheat
p10894
aa(lp10895
Vearn
p10896
aa(lp10897
Vearn
p10898
aa(lp10899
Vearn
p10900
aa(lp10901
Vearn
p10902
aa(lp10903
Vgrain
p10904
aVcorn
p10905
aa(lp10906
Vearn
p10907
aa(lp10908
Vearn
p10909
aa(lp10910
Vearn
p10911
aa(lp10912
Vearn
p10913
aa(lp10914
Vearn
p10915
aa(lp10916
Vgrain
p10917
aa(lp10918
Vearn
p10919
aa(lp10920
Vearn
p10921
aa(lp10922
Vinterest
p10923
aa(lp10924
Vearn
p10925
aa(lp10926
Vtrade
p10927
aa(lp10928
Vearn
p10929
aa(lp10930
Vearn
p10931
aa(lp10932
Vearn
p10933
aa(lp10934
Vcrude
p10935
aa(lp10936
Vearn
p10937
aa(lp10938
Vearn
p10939
aa(lp10940
Vearn
p10941
aa(lp10942
Vearn
p10943
aa(lp10944
Vearn
p10945
aa(lp10946
Vcrude
p10947
aa(lp10948
Vgrain
p10949
aVcorn
p10950
aVwheat
p10951
aa(lp10952
Vcrude
p10953
aa(lp10954
Vearn
p10955
aa(lp10956
Vearn
p10957
aa(lp10958
Vcrude
p10959
aa(lp10960
Vtrade
p10961
aa(lp10962
Vearn
p10963
aa(lp10964
Vearn
p10965
aa(lp10966
Vearn
p10967
aa(lp10968
Vinterest
p10969
aVmoney-fx
p10970
aa(lp10971
Vgrain
p10972
aa(lp10973
Vtrade
p10974
aa(lp10975
Vtrade
p10976
aVmoney-fx
p10977
aa(lp10978
Vmoney-fx
p10979
aVinterest
p10980
aa(lp10981
Vearn
p10982
aa(lp10983
Vearn
p10984
aa(lp10985
Vearn
p10986
aa(lp10987
Vinterest
p10988
aa(lp10989
Vtrade
p10990
aa(lp10991
Vearn
p10992
aa(lp10993
Vwheat
p10994
aVgrain
p10995
aa(lp10996
Vearn
p10997
aa(lp10998
Vearn
p10999
aa(lp11000
Vearn
p11001
aa(lp11002
Vearn
p11003
aa(lp11004
Vearn
p11005
aa(lp11006
Vinterest
p11007
aa(lp11008
Vearn
p11009
aa(lp11010
Vearn
p11011
aa(lp11012
Vearn
p11013
aa(lp11014
Vtrade
p11015
aa(lp11016
Vearn
p11017
aa(lp11018
Vtrade
p11019
aa(lp11020
Vmoney-fx
p11021
aa(lp11022
Vmoney-fx
p11023
aVinterest
p11024
aa(lp11025
Vearn
p11026
aa(lp11027
Vmoney-fx
p11028
aa(lp11029
Vmoney-fx
p11030
aVinterest
p11031
aa(lp11032
Vtrade
p11033
aa(lp11034
Vmoney-fx
p11035
aa(lp11036
Vmoney-fx
p11037
aa(lp11038
Vmoney-fx
p11039
aa(lp11040
Vearn
p11041
aa(lp11042
Vtrade
p11043
aVmoney-fx
p11044
aa(lp11045
Vmoney-fx
p11046
aa(lp11047
Vearn
p11048
aa(lp11049
Vearn
p11050
aa(lp11051
Vmoney-fx
p11052
aa(lp11053
Vwheat
p11054
aVgrain
p11055
aa(lp11056
Vearn
p11057
aa(lp11058
Vearn
p11059
aa(lp11060
Vearn
p11061
aa(lp11062
Vearn
p11063
aa(lp11064
Vship
p11065
aa(lp11066
Vearn
p11067
aa(lp11068
Vearn
p11069
aa(lp11070
Vearn
p11071
aa(lp11072
Vearn
p11073
aa(lp11074
Vgrain
p11075
aVwheat
p11076
aa(lp11077
Vmoney-fx
p11078
aa(lp11079
Vearn
p11080
aa(lp11081
Vearn
p11082
aa(lp11083
Vcrude
p11084
aa(lp11085
Vearn
p11086
aa(lp11087
Vmoney-fx
p11088
aVinterest
p11089
aa(lp11090
Vmoney-fx
p11091
aa(lp11092
Vmoney-fx
p11093
aa(lp11094
Vearn
p11095
aa(lp11096
Vgrain
p11097
aVship
p11098
aa(lp11099
Vearn
p11100
aa(lp11101
Vmoney-fx
p11102
aVinterest
p11103
aa(lp11104
Vearn
p11105
aa(lp11106
Vearn
p11107
aa(lp11108
Vinterest
p11109
aa(lp11110
Vinterest
p11111
aVtrade
p11112
aa(lp11113
Vearn
p11114
aa(lp11115
Vearn
p11116
aa(lp11117
Vearn
p11118
aa(lp11119
Vinterest
p11120
aa(lp11121
Vearn
p11122
aa(lp11123
Vgrain
p11124
aVwheat
p11125
aa(lp11126
Vearn
p11127
aa(lp11128
Vearn
p11129
aa(lp11130
Vgrain
p11131
aVwheat
p11132
aa(lp11133
Vinterest
p11134
aa(lp11135
Vinterest
p11136
aa(lp11137
Vgrain
p11138
aa(lp11139
Vearn
p11140
aa(lp11141
Vwheat
p11142
aVgrain
p11143
aa(lp11144
Vearn
p11145
aa(lp11146
Vearn
p11147
aa(lp11148
Vearn
p11149
aa(lp11150
Vearn
p11151
aa(lp11152
Vearn
p11153
aa(lp11154
Vearn
p11155
aa(lp11156
Vearn
p11157
aa(lp11158
Vearn
p11159
aa(lp11160
Vearn
p11161
aa(lp11162
Vinterest
p11163
aa(lp11164
Vinterest
p11165
aa(lp11166
Vearn
p11167
aa(lp11168
Vmoney-fx
p11169
aVinterest
p11170
aa(lp11171
Vinterest
p11172
aa(lp11173
Vgrain
p11174
aVcorn
p11175
aVwheat
p11176
aa(lp11177
Vmoney-fx
p11178
aa(lp11179
Vmoney-fx
p11180
aa(lp11181
Vearn
p11182
aa(lp11183
Vearn
p11184
aa(lp11185
Vearn
p11186
aa(lp11187
Vmoney-fx
p11188
aa(lp11189
Vearn
p11190
aa(lp11191
Vearn
p11192
aa(lp11193
Vearn
p11194
aa(lp11195
Vtrade
p11196
aa(lp11197
Vcorn
p11198
aVgrain
p11199
aa(lp11200
Vgrain
p11201
aa(lp11202
Vearn
p11203
aa(lp11204
Vearn
p11205
aa(lp11206
Vmoney-fx
p11207
aa(lp11208
Vtrade
p11209
aa(lp11210
Vearn
p11211
aa(lp11212
Vearn
p11213
aa(lp11214
Vearn
p11215
aa(lp11216
Vearn
p11217
aa(lp11218
Vgrain
p11219
aVcorn
p11220
aVwheat
p11221
aa(lp11222
Vmoney-fx
p11223
aa(lp11224
Vearn
p11225
aa(lp11226
Vearn
p11227
aa(lp11228
Vgrain
p11229
aVcorn
p11230
aVwheat
p11231
aa(lp11232
Vearn
p11233
aa(lp11234
Vmoney-fx
p11235
aa(lp11236
Vearn
p11237
aa(lp11238
Vearn
p11239
aa(lp11240
Vmoney-fx
p11241
aa(lp11242
Vearn
p11243
aa(lp11244
Vship
p11245
aa(lp11246
Vearn
p11247
aa(lp11248
Vearn
p11249
aa(lp11250
Vearn
p11251
aa(lp11252
Vearn
p11253
aa(lp11254
Vearn
p11255
aa(lp11256
Vearn
p11257
aa(lp11258
Vgrain
p11259
aVship
p11260
aa(lp11261
Vearn
p11262
aa(lp11263
Vearn
p11264
aa(lp11265
Vgrain
p11266
aVcorn
p11267
aa(lp11268
Vearn
p11269
aa(lp11270
Vtrade
p11271
aa(lp11272
Vgrain
p11273
aVship
p11274
aa(lp11275
Vship
p11276
aa(lp11277
Vgrain
p11278
aVship
p11279
aVwheat
p11280
aa(lp11281
Vearn
p11282
aa(lp11283
Vearn
p11284
aa(lp11285
Vearn
p11286
aa(lp11287
Vearn
p11288
aa(lp11289
Vtrade
p11290
aa(lp11291
Vearn
p11292
aa(lp11293
Vearn
p11294
aa(lp11295
Vearn
p11296
aa(lp11297
Vearn
p11298
aa(lp11299
Vearn
p11300
aa(lp11301
Vearn
p11302
aa(lp11303
Vearn
p11304
aa(lp11305
Vearn
p11306
aa(lp11307
Vearn
p11308
aa(lp11309
Vearn
p11310
aa(lp11311
Vearn
p11312
aa(lp11313
Vearn
p11314
aa(lp11315
Vearn
p11316
aa(lp11317
Vearn
p11318
aa(lp11319
Vinterest
p11320
aa(lp11321
Vearn
p11322
aa(lp11323
Vearn
p11324
aa(lp11325
Vinterest
p11326
aa(lp11327
Vearn
p11328
aa(lp11329
Vearn
p11330
aa(lp11331
Vearn
p11332
aa(lp11333
Vearn
p11334
aa(lp11335
Vearn
p11336
aa(lp11337
Vearn
p11338
aa(lp11339
Vearn
p11340
aa(lp11341
Vgrain
p11342
aVwheat
p11343
aa(lp11344
Vtrade
p11345
aa(lp11346
Vearn
p11347
aa(lp11348
Vgrain
p11349
aa(lp11350
Vgrain
p11351
aa(lp11352
Vgrain
p11353
aVcorn
p11354
aVwheat
p11355
aa(lp11356
Vearn
p11357
aa(lp11358
Vearn
p11359
aa(lp11360
Vgrain
p11361
aVwheat
p11362
aa(lp11363
Vgrain
p11364
aVcorn
p11365
aa(lp11366
Vgrain
p11367
aVcorn
p11368
aVwheat
p11369
aa(lp11370
Vgrain
p11371
aVwheat
p11372
aVcorn
p11373
aa(lp11374
Vgrain
p11375
aVwheat
p11376
aa(lp11377
Vgrain
p11378
aVwheat
p11379
aa(lp11380
Vearn
p11381
aa(lp11382
Vgrain
p11383
aVwheat
p11384
aa(lp11385
Vgrain
p11386
aVwheat
p11387
aa(lp11388
Vgrain
p11389
aVwheat
p11390
aa(lp11391
Vgrain
p11392
aVcorn
p11393
aa(lp11394
Vgrain
p11395
aVwheat
p11396
aa(lp11397
Vgrain
p11398
aVcorn
p11399
aVwheat
p11400
aa(lp11401
Vgrain
p11402
aVcorn
p11403
aa(lp11404
Vearn
p11405
aa(lp11406
Vearn
p11407
aa(lp11408
Vearn
p11409
aa(lp11410
Vearn
p11411
aa(lp11412
Vearn
p11413
aa(lp11414
Vgrain
p11415
aVwheat
p11416
aVcorn
p11417
aa(lp11418
Vgrain
p11419
aVwheat
p11420
aa(lp11421
Vgrain
p11422
aVwheat
p11423
aa(lp11424
Vearn
p11425
aa(lp11426
Vearn
p11427
aa(lp11428
Vearn
p11429
aa(lp11430
Vearn
p11431
aa(lp11432
Vearn
p11433
aa(lp11434
Vgrain
p11435
aVcorn
p11436
aa(lp11437
Vgrain
p11438
aVwheat
p11439
aVcorn
p11440
aa(lp11441
Vearn
p11442
aa(lp11443
Vearn
p11444
aa(lp11445
Vgrain
p11446
aVcorn
p11447
aa(lp11448
Vgrain
p11449
aVwheat
p11450
aVcorn
p11451
aa(lp11452
Vearn
p11453
aa(lp11454
Vgrain
p11455
aa(lp11456
Vgrain
p11457
aVwheat
p11458
aa(lp11459
Vgrain
p11460
aVwheat
p11461
aVcorn
p11462
aa(lp11463
Vgrain
p11464
aVwheat
p11465
aa(lp11466
Vgrain
p11467
aa(lp11468
Vearn
p11469
aa(lp11470
Vearn
p11471
aa(lp11472
Vearn
p11473
aa(lp11474
Vearn
p11475
aa(lp11476
Vcrude
p11477
aa(lp11478
Vgrain
p11479
aVship
p11480
aa(lp11481
Vearn
p11482
aa(lp11483
Vgrain
p11484
aVwheat
p11485
aVcorn
p11486
aa(lp11487
Vearn
p11488
aa(lp11489
Vcrude
p11490
aa(lp11491
Vearn
p11492
aa(lp11493
Vearn
p11494
aa(lp11495
Vgrain
p11496
aa(lp11497
Vearn
p11498
aa(lp11499
Vearn
p11500
aa(lp11501
Vearn
p11502
aa(lp11503
Vearn
p11504
aa(lp11505
Vearn
p11506
aa(lp11507
Vgrain
p11508
aVcorn
p11509
aa(lp11510
Vearn
p11511
aa(lp11512
Vmoney-fx
p11513
aa(lp11514
Vcrude
p11515
aa(lp11516
Vmoney-fx
p11517
aa(lp11518
Vcrude
p11519
aa(lp11520
Vmoney-fx
p11521
aVgrain
p11522
aa(lp11523
Vgrain
p11524
aVcorn
p11525
aa(lp11526
Vearn
p11527
aa(lp11528
Vgrain
p11529
aVship
p11530
aa(lp11531
Vearn
p11532
aa(lp11533
Vearn
p11534
aa(lp11535
Vearn
p11536
aa(lp11537
Vearn
p11538
aa(lp11539
Vearn
p11540
aa(lp11541
Vship
p11542
aVcrude
p11543
aa(lp11544
Vearn
p11545
aa(lp11546
Vtrade
p11547
aa(lp11548
Vinterest
p11549
aVmoney-fx
p11550
aa(lp11551
Vearn
p11552
aa(lp11553
Vmoney-fx
p11554
aa(lp11555
Vmoney-fx
p11556
aa(lp11557
Vmoney-fx
p11558
aa(lp11559
Vmoney-fx
p11560
aa(lp11561
Vgrain
p11562
aVwheat
p11563
aVcorn
p11564
aa(lp11565
Vmoney-fx
p11566
aVinterest
p11567
aa(lp11568
Vinterest
p11569
aa(lp11570
Vinterest
p11571
aa(lp11572
Vship
p11573
aa(lp11574
Vcrude
p11575
aa(lp11576
Vgrain
p11577
aa(lp11578
Vinterest
p11579
aa(lp11580
Vearn
p11581
aa(lp11582
Vtrade
p11583
aa(lp11584
Vtrade
p11585
aa(lp11586
Vtrade
p11587
aa(lp11588
Vinterest
p11589
aa(lp11590
Vgrain
p11591
aVcorn
p11592
aa(lp11593
Vmoney-fx
p11594
aa(lp11595
Vmoney-fx
p11596
aa(lp11597
Vearn
p11598
aa(lp11599
Vtrade
p11600
aa(lp11601
Vearn
p11602
aa(lp11603
Vinterest
p11604
aa(lp11605
Vtrade
p11606
aa(lp11607
Vtrade
p11608
aa(lp11609
Vmoney-fx
p11610
aa(lp11611
Vtrade
p11612
aa(lp11613
Vearn
p11614
aa(lp11615
Vearn
p11616
aa(lp11617
Vmoney-fx
p11618
aa(lp11619
Vgrain
p11620
aVwheat
p11621
aa(lp11622
Vgrain
p11623
aVcorn
p11624
aa(lp11625
Vinterest
p11626
aa(lp11627
Vinterest
p11628
aVmoney-fx
p11629
aa(lp11630
Vearn
p11631
aa(lp11632
Vearn
p11633
aa(lp11634
Vearn
p11635
aa(lp11636
Vmoney-fx
p11637
aa(lp11638
Vmoney-fx
p11639
aVinterest
p11640
aa(lp11641
Vmoney-fx
p11642
aa(lp11643
Vmoney-fx
p11644
aa(lp11645
Vmoney-fx
p11646
aVtrade
p11647
aa(lp11648
Vearn
p11649
aa(lp11650
Vearn
p11651
aa(lp11652
Vearn
p11653
aa(lp11654
Vmoney-fx
p11655
aa(lp11656
Vinterest
p11657
aa(lp11658
Vearn
p11659
aa(lp11660
Vearn
p11661
aa(lp11662
Vearn
p11663
aa(lp11664
Vearn
p11665
aa(lp11666
Vearn
p11667
aa(lp11668
Vearn
p11669
aa(lp11670
Vearn
p11671
aa(lp11672
Vmoney-fx
p11673
aa(lp11674
Vearn
p11675
aa(lp11676
Vtrade
p11677
aa(lp11678
Vtrade
p11679
aa(lp11680
Vearn
p11681
aa(lp11682
Vearn
p11683
aa(lp11684
Vearn
p11685
aa(lp11686
Vearn
p11687
aa(lp11688
Vgrain
p11689
aa(lp11690
Vearn
p11691
aa(lp11692
Vearn
p11693
aa(lp11694
Vgrain
p11695
aVwheat
p11696
aa(lp11697
Vinterest
p11698
aa(lp11699
Vearn
p11700
aa(lp11701
Vearn
p11702
aa(lp11703
Vearn
p11704
aa(lp11705
Vearn
p11706
aa(lp11707
Vmoney-fx
p11708
aa(lp11709
Vearn
p11710
aa(lp11711
Vearn
p11712
aa(lp11713
Vearn
p11714
aa(lp11715
Vearn
p11716
aa(lp11717
Vinterest
p11718
aa(lp11719
Vearn
p11720
aa(lp11721
Vearn
p11722
aa(lp11723
Vearn
p11724
aa(lp11725
Vearn
p11726
aa(lp11727
Vinterest
p11728
aa(lp11729
Vearn
p11730
aa(lp11731
Vearn
p11732
aa(lp11733
Vearn
p11734
aa(lp11735
Vearn
p11736
aa(lp11737
Vearn
p11738
aa(lp11739
Vearn
p11740
aa(lp11741
Vmoney-fx
p11742
aa(lp11743
Vearn
p11744
aa(lp11745
Vearn
p11746
aa(lp11747
Vearn
p11748
aa(lp11749
Vearn
p11750
aa(lp11751
Vearn
p11752
aa(lp11753
Vearn
p11754
aa(lp11755
Vearn
p11756
aa(lp11757
Vearn
p11758
aa(lp11759
Vearn
p11760
aa(lp11761
Vearn
p11762
aa(lp11763
Vtrade
p11764
aa(lp11765
Vgrain
p11766
aa(lp11767
Vearn
p11768
aa(lp11769
Vearn
p11770
aa(lp11771
Vearn
p11772
aa(lp11773
Vcrude
p11774
aVship
p11775
aa(lp11776
Vearn
p11777
aa(lp11778
Vearn
p11779
aa(lp11780
Vearn
p11781
aa(lp11782
Vearn
p11783
aa(lp11784
Vearn
p11785
aa(lp11786
Vearn
p11787
aa(lp11788
Vearn
p11789
aa(lp11790
Vearn
p11791
aa(lp11792
Vmoney-fx
p11793
aVinterest
p11794
aa(lp11795
Vearn
p11796
aa(lp11797
Vearn
p11798
aa(lp11799
Vearn
p11800
aa(lp11801
Vearn
p11802
aa(lp11803
Vearn
p11804
aa(lp11805
Vearn
p11806
aa(lp11807
Vearn
p11808
aa(lp11809
Vearn
p11810
aa(lp11811
Vearn
p11812
aa(lp11813
Vearn
p11814
aa(lp11815
Vearn
p11816
aa(lp11817
Vearn
p11818
aa(lp11819
Vearn
p11820
aa(lp11821
Vinterest
p11822
aa(lp11823
Vearn
p11824
aa(lp11825
Vearn
p11826
aa(lp11827
Vearn
p11828
aa(lp11829
Vearn
p11830
aa(lp11831
Vearn
p11832
aa(lp11833
Vearn
p11834
aa(lp11835
Vearn
p11836
aa(lp11837
Vearn
p11838
aa(lp11839
Vcrude
p11840
aa(lp11841
Vearn
p11842
aa(lp11843
Vearn
p11844
aa(lp11845
Vearn
p11846
aa(lp11847
Vearn
p11848
aa(lp11849
Vcrude
p11850
aa(lp11851
Vearn
p11852
aa(lp11853
Vearn
p11854
aa(lp11855
Vtrade
p11856
aa(lp11857
Vearn
p11858
aa(lp11859
Vearn
p11860
aa(lp11861
Vearn
p11862
aa(lp11863
Vearn
p11864
aa(lp11865
Vearn
p11866
aa(lp11867
Vearn
p11868
aa(lp11869
Vearn
p11870
aa(lp11871
Vearn
p11872
aa(lp11873
Vearn
p11874
aa(lp11875
Vearn
p11876
aa(lp11877
Vearn
p11878
aa(lp11879
Vearn
p11880
aa(lp11881
Vearn
p11882
aa(lp11883
Vearn
p11884
aa(lp11885
Vearn
p11886
aa(lp11887
Vearn
p11888
aa(lp11889
Vearn
p11890
aa(lp11891
Vearn
p11892
aa(lp11893
Vearn
p11894
aa(lp11895
Vearn
p11896
aa(lp11897
Vearn
p11898
aa(lp11899
Vearn
p11900
aa(lp11901
Vearn
p11902
aa(lp11903
Vtrade
p11904
aa(lp11905
Vearn
p11906
aa(lp11907
Vearn
p11908
aa(lp11909
Vgrain
p11910
aVcorn
p11911
aVwheat
p11912
aa(lp11913
Vearn
p11914
aa(lp11915
Vearn
p11916
aa(lp11917
Vearn
p11918
aa(lp11919
Vearn
p11920
aa(lp11921
Vearn
p11922
aa(lp11923
Vearn
p11924
aa(lp11925
Vearn
p11926
aa(lp11927
Vearn
p11928
aa(lp11929
Vearn
p11930
aa(lp11931
Vearn
p11932
aa(lp11933
Vearn
p11934
aa(lp11935
Vinterest
p11936
aVmoney-fx
p11937
aa(lp11938
Vearn
p11939
aa(lp11940
Vearn
p11941
aa(lp11942
Vearn
p11943
aa(lp11944
Vearn
p11945
aa(lp11946
Vearn
p11947
aa(lp11948
Vearn
p11949
aa(lp11950
Vearn
p11951
aa(lp11952
Vearn
p11953
aa(lp11954
Vearn
p11955
aa(lp11956
Vcrude
p11957
aa(lp11958
Vearn
p11959
aa(lp11960
Vearn
p11961
aa(lp11962
Vearn
p11963
aa(lp11964
Vgrain
p11965
aa(lp11966
Vearn
p11967
aa(lp11968
Vearn
p11969
aa(lp11970
Vcrude
p11971
aa(lp11972
Vearn
p11973
aa(lp11974
Vearn
p11975
aa(lp11976
Vearn
p11977
aa(lp11978
Vearn
p11979
aa(lp11980
Vearn
p11981
aa(lp11982
Vearn
p11983
aa(lp11984
Vgrain
p11985
aVcorn
p11986
aa(lp11987
Vearn
p11988
aa(lp11989
Vearn
p11990
aa(lp11991
Vearn
p11992
aa(lp11993
Vearn
p11994
aa(lp11995
Vearn
p11996
aa(lp11997
Vcrude
p11998
aa(lp11999
Vearn
p12000
aa(lp12001
Vearn
p12002
aa(lp12003
Vearn
p12004
aa(lp12005
Vearn
p12006
aa(lp12007
Vearn
p12008
aa(lp12009
Vcrude
p12010
aa(lp12011
Vcrude
p12012
aa(lp12013
Vearn
p12014
aa(lp12015
Vearn
p12016
aa(lp12017
Vearn
p12018
aa(lp12019
Vcrude
p12020
aa(lp12021
Vearn
p12022
aa(lp12023
Vearn
p12024
aa(lp12025
Vearn
p12026
aa(lp12027
Vearn
p12028
aa(lp12029
Vearn
p12030
aa(lp12031
Vearn
p12032
aa(lp12033
Vearn
p12034
aa(lp12035
Vearn
p12036
aa(lp12037
Vinterest
p12038
aa(lp12039
Vearn
p12040
aa(lp12041
Vearn
p12042
aa(lp12043
Vearn
p12044
aa(lp12045
Vearn
p12046
aa(lp12047
Vcrude
p12048
aa(lp12049
Vearn
p12050
aa(lp12051
Vearn
p12052
aa(lp12053
Vearn
p12054
aa(lp12055
Vearn
p12056
aa(lp12057
Vcrude
p12058
aa(lp12059
Vearn
p12060
aa(lp12061
Vearn
p12062
aa(lp12063
Vearn
p12064
aa(lp12065
Vcrude
p12066
aa(lp12067
Vmoney-fx
p12068
aa(lp12069
Vmoney-fx
p12070
aa(lp12071
Vtrade
p12072
aa(lp12073
Vgrain
p12074
aVcorn
p12075
aa(lp12076
Vgrain
p12077
aa(lp12078
Vmoney-fx
p12079
aa(lp12080
Vcrude
p12081
aa(lp12082
Vgrain
p12083
aVtrade
p12084
aa(lp12085
Vgrain
p12086
aVcorn
p12087
aa(lp12088
Vtrade
p12089
aa(lp12090
Vmoney-fx
p12091
aa(lp12092
Vtrade
p12093
aa(lp12094
Vtrade
p12095
aa(lp12096
Vtrade
p12097
aa(lp12098
Vtrade
p12099
aa(lp12100
Vtrade
p12101
aa(lp12102
Vtrade
p12103
aa(lp12104
Vtrade
p12105
aVgrain
p12106
aa(lp12107
Vearn
p12108
aa(lp12109
Vtrade
p12110
aa(lp12111
Vearn
p12112
aa(lp12113
Vearn
p12114
aa(lp12115
Vearn
p12116
aa(lp12117
Vearn
p12118
aa(lp12119
Vearn
p12120
aa(lp12121
Vearn
p12122
aa(lp12123
Vearn
p12124
aa(lp12125
Vearn
p12126
aa(lp12127
Vearn
p12128
aa(lp12129
Vearn
p12130
aa(lp12131
Vearn
p12132
aa(lp12133
Vearn
p12134
aa(lp12135
Vearn
p12136
aa(lp12137
Vearn
p12138
aa(lp12139
Vearn
p12140
aa(lp12141
Vearn
p12142
aa(lp12143
Vearn
p12144
aa(lp12145
Vearn
p12146
aa(lp12147
Vearn
p12148
aa(lp12149
Vearn
p12150
aa(lp12151
Vearn
p12152
aa(lp12153
Vearn
p12154
aa(lp12155
Vearn
p12156
aa(lp12157
Vearn
p12158
aa(lp12159
Vearn
p12160
aa(lp12161
Vearn
p12162
aa(lp12163
Vearn
p12164
aa(lp12165
Vearn
p12166
aa(lp12167
Vearn
p12168
aa(lp12169
Vearn
p12170
aa(lp12171
Vearn
p12172
aa(lp12173
Vearn
p12174
aa(lp12175
Vearn
p12176
aa(lp12177
Vinterest
p12178
aa(lp12179
Vtrade
p12180
aa(lp12181
Vearn
p12182
aa(lp12183
Vearn
p12184
aa(lp12185
Vtrade
p12186
aa(lp12187
Vearn
p12188
aa(lp12189
Vearn
p12190
aa(lp12191
Vearn
p12192
aa(lp12193
Vearn
p12194
aa(lp12195
Vearn
p12196
aa(lp12197
Vearn
p12198
aa(lp12199
Vmoney-fx
p12200
aa(lp12201
Vearn
p12202
aa(lp12203
Vearn
p12204
aa(lp12205
Vearn
p12206
aa(lp12207
Vearn
p12208
aa(lp12209
Vearn
p12210
aa(lp12211
Vearn
p12212
aa(lp12213
Vearn
p12214
aa(lp12215
Vearn
p12216
aa(lp12217
Vtrade
p12218
aa(lp12219
Vtrade
p12220
aa(lp12221
Vtrade
p12222
aa(lp12223
Vtrade
p12224
aa(lp12225
Vgrain
p12226
aa(lp12227
Vcrude
p12228
aa(lp12229
Vmoney-fx
p12230
aVinterest
p12231
aa(lp12232
Vgrain
p12233
aVtrade
p12234
aa(lp12235
Vearn
p12236
aa(lp12237
Vtrade
p12238
aa(lp12239
Vtrade
p12240
aVgrain
p12241
aa(lp12242
Vtrade
p12243
aVmoney-fx
p12244
aa(lp12245
Vinterest
p12246
aVmoney-fx
p12247
aa(lp12248
Vmoney-fx
p12249
aa(lp12250
Vtrade
p12251
aa(lp12252
Vtrade
p12253
aa(lp12254
Vtrade
p12255
aVgrain
p12256
aa(lp12257
Vcrude
p12258
aa(lp12259
Vship
p12260
aa(lp12261
Vtrade
p12262
aa(lp12263
Vtrade
p12264
aa(lp12265
Vcrude
p12266
aa(lp12267
Vtrade
p12268
aa(lp12269
Vtrade
p12270
aa(lp12271
Vtrade
p12272
aa(lp12273
Vgrain
p12274
aVwheat
p12275
aa(lp12276
Vmoney-fx
p12277
aa(lp12278
Vmoney-fx
p12279
aa(lp12280
Vmoney-fx
p12281
aa(lp12282
Vinterest
p12283
aa(lp12284
Vinterest
p12285
aVmoney-fx
p12286
aa(lp12287
Vtrade
p12288
aa(lp12289
Vearn
p12290
aa(lp12291
Vinterest
p12292
aa(lp12293
Vmoney-fx
p12294
aa(lp12295
Vcrude
p12296
aa(lp12297
Vcrude
p12298
aa(lp12299
Vmoney-fx
p12300
aa(lp12301
Vgrain
p12302
aVwheat
p12303
aa(lp12304
Vinterest
p12305
aVmoney-fx
p12306
aa(lp12307
Vgrain
p12308
aVwheat
p12309
aa(lp12310
Vtrade
p12311
aa(lp12312
Vcrude
p12313
aa(lp12314
Vearn
p12315
aa(lp12316
Vearn
p12317
aa(lp12318
Vearn
p12319
aa(lp12320
Vearn
p12321
aa(lp12322
Vearn
p12323
aa(lp12324
Vmoney-fx
p12325
aa(lp12326
Vmoney-fx
p12327
aa(lp12328
Vmoney-fx
p12329
aa(lp12330
Vinterest
p12331
aa(lp12332
Vinterest
p12333
aa(lp12334
Vcrude
p12335
aa(lp12336
Vgrain
p12337
aVcorn
p12338
aa(lp12339
Vmoney-fx
p12340
aa(lp12341
Vinterest
p12342
aVmoney-fx
p12343
aa(lp12344
Vmoney-fx
p12345
aa(lp12346
Vmoney-fx
p12347
aa(lp12348
Vmoney-fx
p12349
aa(lp12350
Vtrade
p12351
aVmoney-fx
p12352
aa(lp12353
Vmoney-fx
p12354
aa(lp12355
Vinterest
p12356
aa(lp12357
Vmoney-fx
p12358
aa(lp12359
Vship
p12360
aa(lp12361
Vtrade
p12362
aa(lp12363
Vtrade
p12364
aa(lp12365
Vinterest
p12366
aa(lp12367
Vmoney-fx
p12368
aa(lp12369
Vcrude
p12370
aa(lp12371
Vtrade
p12372
aa(lp12373
Vtrade
p12374
aa(lp12375
Vtrade
p12376
aa(lp12377
Vmoney-fx
p12378
aa(lp12379
Vmoney-fx
p12380
aa(lp12381
Vgrain
p12382
aVcorn
p12383
aa(lp12384
Vcrude
p12385
aa(lp12386
Vcrude
p12387
aa(lp12388
Vcrude
p12389
aa(lp12390
Vcrude
p12391
aa(lp12392
Vtrade
p12393
aa(lp12394
Vcrude
p12395
aa(lp12396
Vcrude
p12397
aa(lp12398
Vearn
p12399
aa(lp12400
Vship
p12401
aa(lp12402
Vmoney-fx
p12403
aVtrade
p12404
aa(lp12405
Vcrude
p12406
aa(lp12407
Vmoney-fx
p12408
aa(lp12409
Vmoney-fx
p12410
aa(lp12411
Vship
p12412
aVgrain
p12413
aVcorn
p12414
aa(lp12415
Vinterest
p12416
aVmoney-fx
p12417
aa(lp12418
Vcrude
p12419
aa(lp12420
Vgrain
p12421
aVwheat
p12422
aa(lp12423
Vtrade
p12424
aa(lp12425
Vinterest
p12426
aa(lp12427
Vgrain
p12428
aVwheat
p12429
aa(lp12430
Vtrade
p12431
aa(lp12432
Vgrain
p12433
aVcorn
p12434
aa(lp12435
Vtrade
p12436
aa(lp12437
Vcrude
p12438
aVtrade
p12439
aa(lp12440
Vinterest
p12441
aa(lp12442
Vtrade
p12443
aa(lp12444
Vmoney-fx
p12445
aa(lp12446
Vtrade
p12447
aVgrain
p12448
aVwheat
p12449
aa(lp12450
Vcrude
p12451
aa(lp12452
Vmoney-fx
p12453
aVinterest
p12454
aa(lp12455
Vtrade
p12456
aa(lp12457
Vtrade
p12458
aVmoney-fx
p12459
aa(lp12460
Vmoney-fx
p12461
aVinterest
p12462
aa(lp12463
Vtrade
p12464
aVmoney-fx
p12465
aa(lp12466
Vmoney-fx
p12467
aa(lp12468
Vmoney-fx
p12469
aa(lp12470
Vmoney-fx
p12471
aa(lp12472
Vmoney-fx
p12473
aa(lp12474
Vmoney-fx
p12475
aa(lp12476
Vtrade
p12477
aa(lp12478
Vinterest
p12479
aa(lp12480
Vmoney-fx
p12481
aa(lp12482
Vmoney-fx
p12483
aa(lp12484
Vcrude
p12485
aa(lp12486
Vtrade
p12487
aa(lp12488
Vmoney-fx
p12489
aVinterest
p12490
aa(lp12491
Vtrade
p12492
aa(lp12493
Vmoney-fx
p12494
aVinterest
p12495
aa(lp12496
Vtrade
p12497
aa(lp12498
Vinterest
p12499
aa(lp12500
Vmoney-fx
p12501
aa(lp12502
Vtrade
p12503
aa(lp12504
Vcrude
p12505
aa(lp12506
Vtrade
p12507
aa(lp12508
Vgrain
p12509
aa(lp12510
Vmoney-fx
p12511
aa(lp12512
Vmoney-fx
p12513
aa(lp12514
Vmoney-fx
p12515
aVinterest
p12516
aa(lp12517
Vmoney-fx
p12518
aVinterest
p12519
aa(lp12520
Vmoney-fx
p12521
aVinterest
p12522
aa(lp12523
Vtrade
p12524
aa(lp12525
Vmoney-fx
p12526
aa(lp12527
Vtrade
p12528
aa(lp12529
Vtrade
p12530
aa(lp12531
Vtrade
p12532
aa(lp12533
Vgrain
p12534
aa(lp12535
Vtrade
p12536
aa(lp12537
Vtrade
p12538
aVmoney-fx
p12539
aa(lp12540
Vmoney-fx
p12541
aa(lp12542
Vcrude
p12543
aa(lp12544
Vcrude
p12545
aa(lp12546
Vinterest
p12547
aa(lp12548
Vmoney-fx
p12549
aa(lp12550
Vmoney-fx
p12551
aVtrade
p12552
aa(lp12553
Vcrude
p12554
aa(lp12555
Vmoney-fx
p12556
aa(lp12557
Vship
p12558
aa(lp12559
Vtrade
p12560
aa(lp12561
Vtrade
p12562
aa(lp12563
Vmoney-fx
p12564
aa(lp12565
Vtrade
p12566
aVmoney-fx
p12567
aa(lp12568
Vmoney-fx
p12569
aa(lp12570
Vtrade
p12571
aVgrain
p12572
aVwheat
p12573
aVcorn
p12574
aa(lp12575
Vmoney-fx
p12576
aa(lp12577
Vship
p12578
aa(lp12579
Vmoney-fx
p12580
aa(lp12581
Vmoney-fx
p12582
aVtrade
p12583
aa(lp12584
Vgrain
p12585
aa(lp12586
Vmoney-fx
p12587
aVinterest
p12588
aa(lp12589
Vcrude
p12590
aa(lp12591
Vgrain
p12592
aVcorn
p12593
aa(lp12594
Vtrade
p12595
aa(lp12596
Vtrade
p12597
aa(lp12598
Vmoney-fx
p12599
aa(lp12600
Vgrain
p12601
aVwheat
p12602
aa(lp12603
Vcrude
p12604
aa(lp12605
Vcrude
p12606
aa(lp12607
Vcrude
p12608
aa(lp12609
Vgrain
p12610
aVwheat
p12611
aa(lp12612
Vcrude
p12613
aa(lp12614
Vmoney-fx
p12615
aa(lp12616
Vship
p12617
aa(lp12618
Vcrude
p12619
aa(lp12620
Vgrain
p12621
aa(lp12622
Vmoney-fx
p12623
aa(lp12624
Vcrude
p12625
aa(lp12626
Vmoney-fx
p12627
aa(lp12628
Vtrade
p12629
aa(lp12630
Vtrade
p12631
aa(lp12632
Vgrain
p12633
aVcorn
p12634
aa(lp12635
Vgrain
p12636
aa(lp12637
Vmoney-fx
p12638
aa(lp12639
Vgrain
p12640
aVwheat
p12641
aa(lp12642
Vtrade
p12643
aa(lp12644
Vgrain
p12645
aa(lp12646
Vship
p12647
aa(lp12648
Vgrain
p12649
aVcorn
p12650
aa(lp12651
Vmoney-fx
p12652
aa(lp12653
Vmoney-fx
p12654
aVinterest
p12655
aa(lp12656
Vmoney-fx
p12657
aa(lp12658
Vgrain
p12659
aVwheat
p12660
aa(lp12661
Vship
p12662
aa(lp12663
Vcrude
p12664
aa(lp12665
Vcrude
p12666
aa(lp12667
Vmoney-fx
p12668
aa(lp12669
Vship
p12670
aa(lp12671
Vship
p12672
aa(lp12673
Vcrude
p12674
aa(lp12675
Vship
p12676
aa(lp12677
Vcrude
p12678
aa(lp12679
Vmoney-fx
p12680
aa(lp12681
Vgrain
p12682
aVwheat
p12683
aa(lp12684
Vcrude
p12685
aa(lp12686
Vmoney-fx
p12687
aa(lp12688
Vcrude
p12689
aa(lp12690
Vcrude
p12691
aa(lp12692
Vcrude
p12693
aa(lp12694
Vcrude
p12695
aa(lp12696
Vship
p12697
aa(lp12698
Vearn
p12699
aa(lp12700
Vgrain
p12701
aa(lp12702
Vinterest
p12703
aa(lp12704
Vinterest
p12705
aa(lp12706
Vtrade
p12707
aa(lp12708
Vtrade
p12709
aa(lp12710
Vship
p12711
aa(lp12712
Vinterest
p12713
aa(lp12714
Vcrude
p12715
aa(lp12716
Vearn
p12717
aa(lp12718
Vship
p12719
aa(lp12720
Vgrain
p12721
aVwheat
p12722
aVcorn
p12723
aa(lp12724
Vgrain
p12725
aVcorn
p12726
aa(lp12727
Vtrade
p12728
aa(lp12729
Vcrude
p12730
aa(lp12731
Vcrude
p12732
aa(lp12733
Vgrain
p12734
aVwheat
p12735
aa(lp12736
Vmoney-fx
p12737
aa(lp12738
Vearn
p12739
aa(lp12740
Vearn
p12741
aa(lp12742
Vearn
p12743
aa(lp12744
Vearn
p12745
aa(lp12746
Vearn
p12747
aa(lp12748
Vearn
p12749
aa(lp12750
Vearn
p12751
aa(lp12752
Vmoney-fx
p12753
aVinterest
p12754
aa(lp12755
Vcrude
p12756
aa(lp12757
Vinterest
p12758
aa(lp12759
Vearn
p12760
aa(lp12761
Vearn
p12762
aa(lp12763
Vearn
p12764
aa(lp12765
Vcrude
p12766
aa(lp12767
Vearn
p12768
aa(lp12769
Vinterest
p12770
aVmoney-fx
p12771
aa(lp12772
Vearn
p12773
aa(lp12774
Vearn
p12775
aa(lp12776
Vcrude
p12777
aa(lp12778
Vearn
p12779
aa(lp12780
Vearn
p12781
aa(lp12782
Vgrain
p12783
aVwheat
p12784
aa(lp12785
Vcrude
p12786
aa(lp12787
Vtrade
p12788
aa(lp12789
Vearn
p12790
aa(lp12791
Vearn
p12792
aa(lp12793
Vearn
p12794
aa(lp12795
Vearn
p12796
aa(lp12797
Vgrain
p12798
aVwheat
p12799
aVcorn
p12800
aa(lp12801
Vmoney-fx
p12802
aa(lp12803
Vmoney-fx
p12804
aa(lp12805
Vship
p12806
aVcrude
p12807
aa(lp12808
Vearn
p12809
aa(lp12810
Vearn
p12811
aa(lp12812
Vgrain
p12813
aVwheat
p12814
aa(lp12815
Vcrude
p12816
aa(lp12817
Vinterest
p12818
aa(lp12819
Vgrain
p12820
aa(lp12821
Vgrain
p12822
aa(lp12823
Vcrude
p12824
aa(lp12825
Vearn
p12826
aa(lp12827
Vcrude
p12828
aa(lp12829
Vearn
p12830
aa(lp12831
Vearn
p12832
aa(lp12833
Vearn
p12834
aa(lp12835
Vearn
p12836
aa(lp12837
Vearn
p12838
aa(lp12839
Vearn
p12840
aa(lp12841
Vcrude
p12842
aa(lp12843
Vcrude
p12844
aa(lp12845
Vearn
p12846
aa(lp12847
Vearn
p12848
aa(lp12849
Vmoney-fx
p12850
aVtrade
p12851
aa(lp12852
Vcrude
p12853
aa(lp12854
Vmoney-fx
p12855
aa(lp12856
Vinterest
p12857
aa(lp12858
Vinterest
p12859
aa(lp12860
Vcrude
p12861
aa(lp12862
Vearn
p12863
aa(lp12864
Vship
p12865
aVcrude
p12866
aa(lp12867
Vcrude
p12868
aa(lp12869
Vinterest
p12870
aa(lp12871
Vearn
p12872
aa(lp12873
Vearn
p12874
aa(lp12875
Vcrude
p12876
aa(lp12877
Vmoney-fx
p12878
aa(lp12879
Vearn
p12880
aa(lp12881
Vtrade
p12882
aa(lp12883
Vship
p12884
aa(lp12885
Vtrade
p12886
aa(lp12887
Vcrude
p12888
aa(lp12889
Vmoney-fx
p12890
aa(lp12891
Vinterest
p12892
aa(lp12893
Vinterest
p12894
aa(lp12895
Vtrade
p12896
aa(lp12897
Vmoney-fx
p12898
aa(lp12899
Vgrain
p12900
aVwheat
p12901
aVship
p12902
aa(lp12903
Vgrain
p12904
aVwheat
p12905
aa(lp12906
Vcrude
p12907
aa(lp12908
Vearn
p12909
aa(lp12910
Vearn
p12911
aa(lp12912
Vinterest
p12913
aa(lp12914
Vearn
p12915
aa(lp12916
Vearn
p12917
aa(lp12918
Vearn
p12919
aa(lp12920
Vship
p12921
aa(lp12922
Vmoney-fx
p12923
aa(lp12924
Vearn
p12925
aa(lp12926
Vmoney-fx
p12927
aa(lp12928
Vinterest
p12929
aa(lp12930
Vmoney-fx
p12931
aa(lp12932
Vgrain
p12933
aa(lp12934
Vearn
p12935
aa(lp12936
Vgrain
p12937
aVcorn
p12938
aa(lp12939
Vearn
p12940
aa(lp12941
Vmoney-fx
p12942
aa(lp12943
Vmoney-fx
p12944
aVinterest
p12945
aa(lp12946
Vearn
p12947
aa(lp12948
Vtrade
p12949
aa(lp12950
Vearn
p12951
aa(lp12952
Vearn
p12953
aa(lp12954
Vcrude
p12955
aa(lp12956
Vearn
p12957
aa(lp12958
Vcrude
p12959
aa(lp12960
Vinterest
p12961
aVmoney-fx
p12962
aa(lp12963
Vearn
p12964
aa(lp12965
Vtrade
p12966
aa(lp12967
Vinterest
p12968
aa(lp12969
Vcrude
p12970
aa(lp12971
Vearn
p12972
aa(lp12973
Vship
p12974
aa(lp12975
Vmoney-fx
p12976
aa(lp12977
Vmoney-fx
p12978
aVinterest
p12979
aa(lp12980
Vcrude
p12981
aa(lp12982
Vtrade
p12983
aa(lp12984
Vearn
p12985
aa(lp12986
Vearn
p12987
aa(lp12988
Vearn
p12989
aa(lp12990
Vship
p12991
aa(lp12992
Vearn
p12993
aa(lp12994
Vearn
p12995
aa(lp12996
Vinterest
p12997
aVmoney-fx
p12998
aa(lp12999
Vcrude
p13000
aa(lp13001
Vship
p13002
aVcrude
p13003
aa(lp13004
Vship
p13005
aa(lp13006
Vcrude
p13007
aa(lp13008
Vearn
p13009
aa(lp13010
Vearn
p13011
aa(lp13012
Vearn
p13013
aa(lp13014
Vtrade
p13015
aa(lp13016
Vearn
p13017
aa(lp13018
Vgrain
p13019
aa(lp13020
Vship
p13021
aa(lp13022
Vgrain
p13023
aVwheat
p13024
aa(lp13025
Vearn
p13026
aa(lp13027
Vearn
p13028
aa(lp13029
Vgrain
p13030
aVwheat
p13031
aa(lp13032
Vtrade
p13033
aa(lp13034
Vearn
p13035
aa(lp13036
Vgrain
p13037
aa(lp13038
Vearn
p13039
aa(lp13040
Vearn
p13041
aa(lp13042
Vearn
p13043
aa(lp13044
Vcrude
p13045
aa(lp13046
Vcrude
p13047
aa(lp13048
Vearn
p13049
aa(lp13050
Vship
p13051
aa(lp13052
Vship
p13053
aVcrude
p13054
aa(lp13055
Vcrude
p13056
aa(lp13057
Vcrude
p13058
aVship
p13059
aa(lp13060
Vgrain
p13061
aVwheat
p13062
aa(lp13063
Vtrade
p13064
aa(lp13065
Vearn
p13066
aa(lp13067
Vearn
p13068
aa(lp13069
Vship
p13070
aa(lp13071
Vmoney-fx
p13072
aa(lp13073
Vinterest
p13074
aa(lp13075
Vmoney-fx
p13076
aa(lp13077
Vmoney-fx
p13078
aa(lp13079
Vship
p13080
aa(lp13081
Vship
p13082
aa(lp13083
Vgrain
p13084
aVwheat
p13085
aa(lp13086
Vcrude
p13087
aa(lp13088
Vtrade
p13089
aa(lp13090
Vgrain
p13091
aVwheat
p13092
aa(lp13093
Vcrude
p13094
aa(lp13095
Vmoney-fx
p13096
aa(lp13097
Vcrude
p13098
aa(lp13099
Vgrain
p13100
aVcorn
p13101
aa(lp13102
Vgrain
p13103
aVcorn
p13104
aa(lp13105
Vgrain
p13106
aVwheat
p13107
aa(lp13108
Vship
p13109
aa(lp13110
Vcrude
p13111
aa(lp13112
Vmoney-fx
p13113
aVtrade
p13114
aa(lp13115
Vship
p13116
aa(lp13117
Vcrude
p13118
aa(lp13119
Vtrade
p13120
aa(lp13121
Vship
p13122
aa(lp13123
Vmoney-fx
p13124
aa(lp13125
Vcrude
p13126
aa(lp13127
Vmoney-fx
p13128
aVinterest
p13129
aa(lp13130
Vgrain
p13131
aa(lp13132
Vmoney-fx
p13133
aVtrade
p13134
aa(lp13135
Vinterest
p13136
aa(lp13137
Vship
p13138
aa(lp13139
Vtrade
p13140
aa(lp13141
Vearn
p13142
aa(lp13143
Vgrain
p13144
aVcorn
p13145
aa(lp13146
Vearn
p13147
aa(lp13148
Vinterest
p13149
aa(lp13150
Vcrude
p13151
aa(lp13152
Vearn
p13153
aa(lp13154
Vtrade
p13155
aa(lp13156
Vearn
p13157
aa(lp13158
Vearn
p13159
aa(lp13160
Vtrade
p13161
aa(lp13162
Vinterest
p13163
aa(lp13164
Vcrude
p13165
aVship
p13166
aa(lp13167
Vcrude
p13168
aa(lp13169
Vinterest
p13170
aa(lp13171
Vinterest
p13172
aa(lp13173
Vtrade
p13174
aa(lp13175
Vearn
p13176
aa(lp13177
Vinterest
p13178
aa(lp13179
Vship
p13180
aa(lp13181
Vearn
p13182
aa(lp13183
Vinterest
p13184
aa(lp13185
Vearn
p13186
aa(lp13187
Vearn
p13188
aa(lp13189
Vgrain
p13190
aa(lp13191
Vearn
p13192
aa(lp13193
Vgrain
p13194
aVcorn
p13195
aa(lp13196
Vcrude
p13197
aa(lp13198
Vmoney-fx
p13199
aa(lp13200
Vearn
p13201
aa(lp13202
Vgrain
p13203
aa(lp13204
Vearn
p13205
aa(lp13206
Vearn
p13207
aa(lp13208
Vcrude
p13209
aa(lp13210
Vcrude
p13211
aa(lp13212
Vmoney-fx
p13213
aa(lp13214
Vinterest
p13215
aa(lp13216
Vinterest
p13217
aa(lp13218
Vmoney-fx
p13219
aa(lp13220
Vcrude
p13221
aa(lp13222
Vcrude
p13223
aa(lp13224
Vcrude
p13225
aa(lp13226
Vcrude
p13227
aa(lp13228
Vcrude
p13229
aa(lp13230
Vearn
p13231
aa(lp13232
Vcrude
p13233
aa(lp13234
Vearn
p13235
aa(lp13236
Vcrude
p13237
aa(lp13238
Vcrude
p13239
aa(lp13240
Vcrude
p13241
aa(lp13242
Vcrude
p13243
aa(lp13244
Vearn
p13245
aa(lp13246
Vearn
p13247
aa(lp13248
Vearn
p13249
aa(lp13250
Vearn
p13251
aa(lp13252
Vearn
p13253
aa(lp13254
Vmoney-fx
p13255
aVinterest
p13256
aa(lp13257
Vcrude
p13258
aa(lp13259
Vearn
p13260
aa(lp13261
Vcrude
p13262
aa(lp13263
Vcrude
p13264
aa(lp13265
Vcrude
p13266
aa(lp13267
Vcrude
p13268
aa(lp13269
Vcrude
p13270
aa(lp13271
Vtrade
p13272
aa(lp13273
Vmoney-fx
p13274
aVinterest
p13275
aa(lp13276
Vtrade
p13277
aa(lp13278
Vcrude
p13279
aa(lp13280
Vmoney-fx
p13281
aVinterest
p13282
aa(lp13283
Vcrude
p13284
aa(lp13285
Vearn
p13286
aa(lp13287
Vcrude
p13288
aa(lp13289
Vcrude
p13290
aa(lp13291
Vearn
p13292
aa(lp13293
Vcrude
p13294
aa(lp13295
Vcrude
p13296
aa(lp13297
Vtrade
p13298
aa(lp13299
Vcrude
p13300
aa(lp13301
Vearn
p13302
aa(lp13303
Vcrude
p13304
aa(lp13305
Vearn
p13306
aa(lp13307
Vearn
p13308
aa(lp13309
Vearn
p13310
aa(lp13311
Vtrade
p13312
aa(lp13313
Vcrude
p13314
aa(lp13315
Vship
p13316
aa(lp13317
Vcrude
p13318
aa(lp13319
Vship
p13320
aa(lp13321
Vtrade
p13322
aa(lp13323
Vearn
p13324
aa(lp13325
Vearn
p13326
aa(lp13327
Vcrude
p13328
aa(lp13329
Vgrain
p13330
aVwheat
p13331
aa(lp13332
Vinterest
p13333
aa(lp13334
Vgrain
p13335
aVwheat
p13336
aa(lp13337
Vearn
p13338
aa(lp13339
Vgrain
p13340
aVcorn
p13341
aa(lp13342
Vearn
p13343
aa(lp13344
Vgrain
p13345
aVcorn
p13346
aa(lp13347
Vtrade
p13348
aa(lp13349
Vtrade
p13350
aa(lp13351
Vearn
p13352
aa(lp13353
Vearn
p13354
aa(lp13355
Vinterest
p13356
aa(lp13357
Vmoney-fx
p13358
aa(lp13359
Vinterest
p13360
aa(lp13361
Vmoney-fx
p13362
aa(lp13363
Vmoney-fx
p13364
aa(lp13365
Vearn
p13366
aa(lp13367
Vtrade
p13368
aa(lp13369
Vmoney-fx
p13370
aa(lp13371
Vtrade
p13372
aa(lp13373
Vearn
p13374
aa(lp13375
Vearn
p13376
aa(lp13377
Vship
p13378
aVgrain
p13379
aa(lp13380
Vgrain
p13381
aa(lp13382
Vmoney-fx
p13383
aa(lp13384
Vtrade
p13385
aa(lp13386
Vcrude
p13387
aa(lp13388
Vship
p13389
aa(lp13390
Vship
p13391
aa(lp13392
Vship
p13393
aa(lp13394
Vcrude
p13395
aa(lp13396
Vinterest
p13397
aa(lp13398
Vship
p13399
aa(lp13400
Vcrude
p13401
aa(lp13402
Vearn
p13403
aa(lp13404
Vtrade
p13405
aa(lp13406
Vgrain
p13407
aVcorn
p13408
aa(lp13409
Vinterest
p13410
aa(lp13411
Vgrain
p13412
aVwheat
p13413
aa(lp13414
Vearn
p13415
aa(lp13416
Vearn
p13417
aa(lp13418
Vearn
p13419
aa(lp13420
Vearn
p13421
aa(lp13422
Vcrude
p13423
aa(lp13424
Vinterest
p13425
aa(lp13426
Vcrude
p13427
aa(lp13428
Vship
p13429
aa(lp13430
Vinterest
p13431
aVmoney-fx
p13432
aa(lp13433
Vgrain
p13434
aVwheat
p13435
aa(lp13436
Vmoney-fx
p13437
aVinterest
p13438
aa(lp13439
Vmoney-fx
p13440
aVinterest
p13441
aa(lp13442
Vship
p13443
aa(lp13444
Vearn
p13445
aa(lp13446
Vearn
p13447
aa(lp13448
Vtrade
p13449
aa(lp13450
Vgrain
p13451
aVwheat
p13452
aa(lp13453
Vcrude
p13454
aa(lp13455
Vcrude
p13456
aa(lp13457
Vtrade
p13458
aa(lp13459
Vearn
p13460
aa(lp13461
Vearn
p13462
aa(lp13463
Vgrain
p13464
aVwheat
p13465
aa(lp13466
Vearn
p13467
aa(lp13468
Vearn
p13469
aa(lp13470
Vearn
p13471
aa(lp13472
Vearn
p13473
aa(lp13474
Vtrade
p13475
aa(lp13476
Vgrain
p13477
aa(lp13478
Vcrude
p13479
aa(lp13480
Vship
p13481
aVcrude
p13482
aa(lp13483
Vearn
p13484
aa(lp13485
Vmoney-fx
p13486
aa(lp13487
Vearn
p13488
aa(lp13489
Vearn
p13490
aa(lp13491
Vearn
p13492
aa(lp13493
Vtrade
p13494
aa(lp13495
Vearn
p13496
aa(lp13497
Vtrade
p13498
aa(lp13499
Vearn
p13500
aa(lp13501
Vearn
p13502
aa(lp13503
Vearn
p13504
aa(lp13505
Vearn
p13506
aa(lp13507
Vearn
p13508
aa(lp13509
Vinterest
p13510
aa(lp13511
Vinterest
p13512
aa(lp13513
Vmoney-fx
p13514
aa(lp13515
Vship
p13516
aa(lp13517
Vcrude
p13518
aa(lp13519
Vcrude
p13520
aa(lp13521
Vcrude
p13522
aa(lp13523
Vcrude
p13524
aa(lp13525
Vcrude
p13526
aa(lp13527
Vcrude
p13528
aa(lp13529
Vinterest
p13530
aa(lp13531
Vinterest
p13532
aa(lp13533
Vearn
p13534
aa(lp13535
Vinterest
p13536
aa(lp13537
Vmoney-fx
p13538
aa(lp13539
Vtrade
p13540
aa(lp13541
Vmoney-fx
p13542
aa(lp13543
Vinterest
p13544
aa(lp13545
Vtrade
p13546
aa(lp13547
Vinterest
p13548
aa(lp13549
Vgrain
p13550
aVwheat
p13551
aa(lp13552
Vtrade
p13553
aa(lp13554
Vcrude
p13555
aa(lp13556
Vinterest
p13557
aa(lp13558
Vcrude
p13559
aa(lp13560
Vcrude
p13561
aa(lp13562
Vearn
p13563
aa(lp13564
Vearn
p13565
aa(lp13566
Vtrade
p13567
aa(lp13568
Vearn
p13569
aa(lp13570
Vearn
p13571
aa(lp13572
Vearn
p13573
aa(lp13574
Vearn
p13575
aa(lp13576
Vearn
p13577
aa(lp13578
Vearn
p13579
aa(lp13580
Vearn
p13581
aa(lp13582
Vearn
p13583
aa(lp13584
Vearn
p13585
aa(lp13586
Vearn
p13587
aa(lp13588
Vtrade
p13589
aa(lp13590
Vearn
p13591
aa(lp13592
Vgrain
p13593
aVwheat
p13594
aa(lp13595
Vtrade
p13596
aa(lp13597
Vearn
p13598
aa(lp13599
Vearn
p13600
aa(lp13601
Vship
p13602
aVcrude
p13603
aa(lp13604
Vinterest
p13605
aVmoney-fx
p13606
aa(lp13607
Vinterest
p13608
aVmoney-fx
p13609
aa(lp13610
Vearn
p13611
aa(lp13612
Vearn
p13613
aa(lp13614
Vearn
p13615
aa(lp13616
Vgrain
p13617
aVcorn
p13618
aa(lp13619
Vearn
p13620
aa(lp13621
Vearn
p13622
aa(lp13623
Vearn
p13624
aa(lp13625
Vship
p13626
aVcrude
p13627
aa(lp13628
Vearn
p13629
aa(lp13630
Vinterest
p13631
aa(lp13632
Vearn
p13633
aa(lp13634
Vearn
p13635
aa(lp13636
Vearn
p13637
aa(lp13638
Vearn
p13639
aa(lp13640
Vearn
p13641
aa(lp13642
Vearn
p13643
aa(lp13644
Vearn
p13645
aa(lp13646
Vgrain
p13647
aVwheat
p13648
aVcorn
p13649
aa(lp13650
Vcrude
p13651
aa(lp13652
Vgrain
p13653
aa(lp13654
Vcrude
p13655
aa(lp13656
Vearn
p13657
aa(lp13658
Vearn
p13659
aa(lp13660
Vearn
p13661
aa(lp13662
Vearn
p13663
aa(lp13664
Vmoney-fx
p13665
aVcrude
p13666
aa(lp13667
Vinterest
p13668
aa(lp13669
Vship
p13670
aa(lp13671
Vearn
p13672
aa(lp13673
Vcrude
p13674
aa(lp13675
Vearn
p13676
aa(lp13677
Vtrade
p13678
aVtrade
p13679
aa(lp13680
Vcrude
p13681
aa(lp13682
Vearn
p13683
aa(lp13684
Vtrade
p13685
aVgrain
p13686
aa(lp13687
Vearn
p13688
aa(lp13689
Vgrain
p13690
aa(lp13691
Vearn
p13692
aa(lp13693
Vearn
p13694
aa(lp13695
Vmoney-fx
p13696
aa(lp13697
Vmoney-fx
p13698
aa(lp13699
Vmoney-fx
p13700
aa(lp13701
Vcrude
p13702
aVship
p13703
aa(lp13704
Vcrude
p13705
aa(lp13706
Vmoney-fx
p13707
aa(lp13708
Vcrude
p13709
aa(lp13710
Vmoney-fx
p13711
aa(lp13712
Vmoney-fx
p13713
aa(lp13714
Vmoney-fx
p13715
aa(lp13716
Vgrain
p13717
aVcorn
p13718
aa(lp13719
Vinterest
p13720
aa(lp13721
Vcrude
p13722
aVship
p13723
aa(lp13724
Vinterest
p13725
aa(lp13726
Vship
p13727
aa(lp13728
Vinterest
p13729
aa(lp13730
Vinterest
p13731
aa(lp13732
Vgrain
p13733
aa(lp13734
Vmoney-fx
p13735
aa(lp13736
Vmoney-fx
p13737
aa(lp13738
Vmoney-fx
p13739
aa(lp13740
Vmoney-fx
p13741
aa(lp13742
Vmoney-fx
p13743
aa(lp13744
Vmoney-fx
p13745
aa(lp13746
Vmoney-fx
p13747
aa(lp13748
Vmoney-fx
p13749
aa(lp13750
Vcrude
p13751
aa(lp13752
Vcrude
p13753
aVship
p13754
aa(lp13755
Vcrude
p13756
aa(lp13757
Vcrude
p13758
aa(lp13759
Vcrude
p13760
aVship
p13761
aa(lp13762
Vcrude
p13763
aVship
p13764
aa(lp13765
Vearn
p13766
aa(lp13767
Vearn
p13768
aa(lp13769
Vearn
p13770
aa(lp13771
Vearn
p13772
aa(lp13773
Vearn
p13774
aa(lp13775
Vearn
p13776
aa(lp13777
Vearn
p13778
aa(lp13779
Vearn
p13780
aa(lp13781
Vearn
p13782
aa(lp13783
Vearn
p13784
aa(lp13785
Vinterest
p13786
aa(lp13787
Vearn
p13788
aa(lp13789
Vinterest
p13790
aa(lp13791
Vinterest
p13792
aa(lp13793
Vearn
p13794
aa(lp13795
Vearn
p13796
aa(lp13797
Vearn
p13798
aa(lp13799
Vearn
p13800
aa(lp13801
Vearn
p13802
aa(lp13803
Vearn
p13804
aa(lp13805
Vearn
p13806
aa(lp13807
Vearn
p13808
aa(lp13809
Vearn
p13810
aa(lp13811
Vearn
p13812
aa(lp13813
Vearn
p13814
aa(lp13815
Vearn
p13816
aa(lp13817
Vearn
p13818
aa(lp13819
Vearn
p13820
aa(lp13821
Vearn
p13822
aa(lp13823
Vearn
p13824
aa(lp13825
Vearn
p13826
aa(lp13827
Vearn
p13828
aa(lp13829
Vearn
p13830
aa(lp13831
Vearn
p13832
aa(lp13833
Vearn
p13834
aa(lp13835
Vearn
p13836
aa(lp13837
Vearn
p13838
aa(lp13839
Vearn
p13840
aa(lp13841
Vgrain
p13842
aVwheat
p13843
aa(lp13844
Vearn
p13845
aa(lp13846
Vearn
p13847
aa(lp13848
Vearn
p13849
aa(lp13850
Vearn
p13851
aa(lp13852
Vgrain
p13853
aVwheat
p13854
aa(lp13855
Vearn
p13856
aa(lp13857
Vtrade
p13858
aa(lp13859
Vearn
p13860
aa(lp13861
Vearn
p13862
aa(lp13863
Vearn
p13864
aa(lp13865
Vearn
p13866
aa(lp13867
Vearn
p13868
aa(lp13869
Vearn
p13870
aa(lp13871
Vgrain
p13872
aVwheat
p13873
aa(lp13874
Vmoney-fx
p13875
aa(lp13876
Vship
p13877
aa(lp13878
Vinterest
p13879
aa(lp13880
Vmoney-fx
p13881
aVinterest
p13882
aa(lp13883
Vinterest
p13884
aa(lp13885
Vearn
p13886
aa(lp13887
Vearn
p13888
aa(lp13889
Vcrude
p13890
aa(lp13891
Vearn
p13892
aa(lp13893
Vearn
p13894
aa(lp13895
Vinterest
p13896
aa(lp13897
Vearn
p13898
aa(lp13899
Vearn
p13900
aa(lp13901
Vearn
p13902
aa(lp13903
Vearn
p13904
aa(lp13905
Vearn
p13906
aa(lp13907
Vearn
p13908
aa(lp13909
Vearn
p13910
aa(lp13911
Vearn
p13912
aa(lp13913
Vearn
p13914
aa(lp13915
Vearn
p13916
aa(lp13917
Vearn
p13918
aa(lp13919
Vearn
p13920
aa(lp13921
Vearn
p13922
aa(lp13923
Vearn
p13924
aa(lp13925
Vearn
p13926
aa(lp13927
Vearn
p13928
aa(lp13929
Vcrude
p13930
aVship
p13931
aa(lp13932
Vearn
p13933
aa(lp13934
Vtrade
p13935
aa(lp13936
Vearn
p13937
aa(lp13938
Vearn
p13939
aa(lp13940
Vearn
p13941
aa(lp13942
Vmoney-fx
p13943
aVinterest
p13944
aa(lp13945
Vearn
p13946
aa(lp13947
Vmoney-fx
p13948
aa(lp13949
Vmoney-fx
p13950
aa(lp13951
Vearn
p13952
aa(lp13953
Vearn
p13954
aa(lp13955
Vearn
p13956
aa(lp13957
Vearn
p13958
aa(lp13959
Vearn
p13960
aa(lp13961
Vearn
p13962
aa(lp13963
Vgrain
p13964
aVcorn
p13965
aa(lp13966
Vearn
p13967
aa(lp13968
Vearn
p13969
aa(lp13970
Vearn
p13971
aa(lp13972
Vearn
p13973
aa(lp13974
Vearn
p13975
aa(lp13976
Vearn
p13977
aa(lp13978
Vearn
p13979
aa(lp13980
Vearn
p13981
aa(lp13982
Vmoney-fx
p13983
aa(lp13984
Vearn
p13985
aa(lp13986
Vearn
p13987
aa(lp13988
Vearn
p13989
aa(lp13990
Vearn
p13991
aa(lp13992
Vearn
p13993
aa(lp13994
Vearn
p13995
aa(lp13996
Vearn
p13997
aa(lp13998
Vearn
p13999
aa(lp14000
Vearn
p14001
aa(lp14002
Vearn
p14003
aa(lp14004
Vearn
p14005
aa(lp14006
Vearn
p14007
aa(lp14008
Vearn
p14009
aa(lp14010
Vearn
p14011
aa(lp14012
Vinterest
p14013
aa(lp14014
Vearn
p14015
aa(lp14016
Vearn
p14017
aa(lp14018
Vearn
p14019
aa(lp14020
Vearn
p14021
aa(lp14022
Vcrude
p14023
aa(lp14024
Vearn
p14025
aa(lp14026
Vearn
p14027
aa(lp14028
Vearn
p14029
aa(lp14030
Vearn
p14031
aa(lp14032
Vtrade
p14033
aa(lp14034
Vearn
p14035
aa(lp14036
Vearn
p14037
aa(lp14038
Vship
p14039
aa(lp14040
Vearn
p14041
aa(lp14042
Vearn
p14043
aa(lp14044
Vearn
p14045
aa(lp14046
Vearn
p14047
aa(lp14048
Vearn
p14049
aa(lp14050
Vcrude
p14051
aa(lp14052
Vtrade
p14053
aa(lp14054
Vtrade
p14055
aa(lp14056
Vearn
p14057
aa(lp14058
Vship
p14059
aVcrude
p14060
aa(lp14061
Vearn
p14062
aa(lp14063
Vtrade
p14064
aa(lp14065
Vearn
p14066
aa(lp14067
Vearn
p14068
aa(lp14069
Vearn
p14070
aa(lp14071
Vcrude
p14072
aa(lp14073
Vearn
p14074
aa(lp14075
Vearn
p14076
aa(lp14077
Vearn
p14078
aa(lp14079
Vearn
p14080
aa(lp14081
Vearn
p14082
aa(lp14083
Vearn
p14084
aa(lp14085
Vearn
p14086
aa(lp14087
Vmoney-fx
p14088
aa(lp14089
Vearn
p14090
aa(lp14091
Vearn
p14092
aa(lp14093
Vearn
p14094
aa(lp14095
Vmoney-fx
p14096
aVinterest
p14097
aa(lp14098
Vearn
p14099
aa(lp14100
Vearn
p14101
aa(lp14102
Vtrade
p14103
aVgrain
p14104
aVwheat
p14105
aa(lp14106
Vearn
p14107
aa(lp14108
Vearn
p14109
aa(lp14110
Vearn
p14111
aa(lp14112
Vearn
p14113
aa(lp14114
Vearn
p14115
aa(lp14116
Vearn
p14117
aa(lp14118
Vearn
p14119
aa(lp14120
Vinterest
p14121
aa(lp14122
Vearn
p14123
aa(lp14124
Vearn
p14125
aa(lp14126
Vearn
p14127
aa(lp14128
Vearn
p14129
aa(lp14130
Vearn
p14131
aa(lp14132
Vgrain
p14133
aVwheat
p14134
aa(lp14135
Vearn
p14136
aa(lp14137
Vearn
p14138
aa(lp14139
Vearn
p14140
aa(lp14141
Vearn
p14142
aa(lp14143
Vearn
p14144
aa(lp14145
Vearn
p14146
aa(lp14147
Vearn
p14148
aa(lp14149
Vearn
p14150
aa(lp14151
Vearn
p14152
aa(lp14153
Vearn
p14154
aa(lp14155
Vearn
p14156
aa(lp14157
Vearn
p14158
aa(lp14159
Vearn
p14160
aa(lp14161
Vearn
p14162
aa(lp14163
Vearn
p14164
aa(lp14165
Vearn
p14166
aa(lp14167
Vgrain
p14168
aVwheat
p14169
aa(lp14170
Vship
p14171
aa(lp14172
Vearn
p14173
aa(lp14174
Vearn
p14175
aa(lp14176
Vinterest
p14177
aVmoney-fx
p14178
aa(lp14179
Vcrude
p14180
aa(lp14181
Vearn
p14182
aa(lp14183
Vgrain
p14184
aVcorn
p14185
aa(lp14186
Vearn
p14187
aa(lp14188
Vearn
p14189
aa(lp14190
Vgrain
p14191
aVcorn
p14192
aVwheat
p14193
aa(lp14194
Vearn
p14195
aa(lp14196
Vearn
p14197
aa(lp14198
Vtrade
p14199
aVgrain
p14200
aVcorn
p14201
aa(lp14202
Vearn
p14203
aa(lp14204
Vearn
p14205
aa(lp14206
Vearn
p14207
aa(lp14208
Vcrude
p14209
aa(lp14210
Vearn
p14211
aa(lp14212
Vearn
p14213
aa(lp14214
Vearn
p14215
aa(lp14216
Vearn
p14217
aa(lp14218
Vearn
p14219
aa(lp14220
Vcrude
p14221
aa(lp14222
Vearn
p14223
aa(lp14224
Vearn
p14225
aa(lp14226
Vearn
p14227
aa(lp14228
Vearn
p14229
aa(lp14230
Vearn
p14231
aa(lp14232
Vearn
p14233
aa(lp14234
Vmoney-fx
p14235
aVinterest
p14236
aa(lp14237
Vearn
p14238
aa(lp14239
Vtrade
p14240
aa(lp14241
Vearn
p14242
aa(lp14243
Vcrude
p14244
aa(lp14245
Vearn
p14246
aa(lp14247
Vearn
p14248
aa(lp14249
Vearn
p14250
aa(lp14251
Vcrude
p14252
aa(lp14253
Vearn
p14254
aa(lp14255
Vearn
p14256
aa(lp14257
Vearn
p14258
aa(lp14259
Vship
p14260
aa(lp14261
Vcrude
p14262
aa(lp14263
Vgrain
p14264
aVcorn
p14265
aa(lp14266
Vearn
p14267
aa(lp14268
Vcrude
p14269
aa(lp14270
Vearn
p14271
aa(lp14272
Vearn
p14273
aa(lp14274
Vgrain
p14275
aVwheat
p14276
aa(lp14277
Vearn
p14278
aa(lp14279
Vearn
p14280
aa(lp14281
Vearn
p14282
aa(lp14283
Vcrude
p14284
aVship
p14285
aa(lp14286
Vtrade
p14287
aa(lp14288
Vinterest
p14289
aa(lp14290
Vgrain
p14291
aVcorn
p14292
aa(lp14293
Vmoney-fx
p14294
aVinterest
p14295
aa(lp14296
Vearn
p14297
aa(lp14298
Vearn
p14299
aa(lp14300
Vinterest
p14301
aa(lp14302
Vearn
p14303
aa(lp14304
Vearn
p14305
aa(lp14306
Vearn
p14307
aa(lp14308
Vship
p14309
aVcrude
p14310
aa(lp14311
Vearn
p14312
aa(lp14313
Vcrude
p14314
aa(lp14315
Vearn
p14316
aa(lp14317
Vearn
p14318
aa(lp14319
Vtrade
p14320
aa(lp14321
Vearn
p14322
aa(lp14323
Vearn
p14324
aa(lp14325
Vearn
p14326
aa(lp14327
Vmoney-fx
p14328
aa(lp14329
Vearn
p14330
aa(lp14331
Vearn
p14332
aa(lp14333
Vearn
p14334
aa(lp14335
Vearn
p14336
aa(lp14337
Vearn
p14338
aa(lp14339
Vearn
p14340
aa(lp14341
Vearn
p14342
aa(lp14343
Vearn
p14344
aa(lp14345
Vearn
p14346
aa(lp14347
Vearn
p14348
aa(lp14349
Vearn
p14350
aa(lp14351
Vearn
p14352
aa(lp14353
Vearn
p14354
aa(lp14355
Vearn
p14356
aa(lp14357
Vcrude
p14358
aVship
p14359
aa(lp14360
Vtrade
p14361
aa(lp14362
Vearn
p14363
aa(lp14364
Vearn
p14365
aa(lp14366
Vearn
p14367
aa(lp14368
Vearn
p14369
aa(lp14370
Vmoney-fx
p14371
aa(lp14372
Vmoney-fx
p14373
aa(lp14374
Vtrade
p14375
aa(lp14376
Vmoney-fx
p14377
aa(lp14378
Vcrude
p14379
aa(lp14380
Vcrude
p14381
aa(lp14382
Vearn
p14383
aa(lp14384
Vcrude
p14385
aVship
p14386
aa(lp14387
Vcrude
p14388
aVship
p14389
aa(lp14390
Vearn
p14391
aa(lp14392
Vearn
p14393
aa(lp14394
Vearn
p14395
aa(lp14396
Vship
p14397
aVcrude
p14398
aa(lp14399
Vmoney-fx
p14400
aa(lp14401
Vearn
p14402
aa(lp14403
Vearn
p14404
aa(lp14405
Vearn
p14406
aa(lp14407
Vship
p14408
aa(lp14409
Vearn
p14410
aa(lp14411
Vmoney-fx
p14412
aa(lp14413
Vcrude
p14414
aa(lp14415
Vearn
p14416
aa(lp14417
Vearn
p14418
aa(lp14419
Vearn
p14420
aa(lp14421
Vearn
p14422
aa(lp14423
Vcrude
p14424
aa(lp14425
Vearn
p14426
aa(lp14427
Vmoney-fx
p14428
aa(lp14429
Vmoney-fx
p14430
aa(lp14431
Vearn
p14432
aa(lp14433
Vearn
p14434
aa(lp14435
Vearn
p14436
aa(lp14437
Vearn
p14438
aa(lp14439
Vearn
p14440
aa(lp14441
Vcrude
p14442
aa(lp14443
Vearn
p14444
aa(lp14445
Vearn
p14446
aa(lp14447
Vmoney-fx
p14448
aa(lp14449
Vearn
p14450
aa(lp14451
Vcrude
p14452
aa(lp14453
Vearn
p14454
aa(lp14455
Vmoney-fx
p14456
aa(lp14457
Vearn
p14458
aa(lp14459
Vearn
p14460
aa(lp14461
Vmoney-fx
p14462
aa(lp14463
Vcrude
p14464
aa(lp14465
Vearn
p14466
aa(lp14467
Vearn
p14468
aa(lp14469
Vearn
p14470
aa(lp14471
Vearn
p14472
aa(lp14473
Vearn
p14474
aa(lp14475
Vearn
p14476
aa(lp14477
Vearn
p14478
aa(lp14479
Vearn
p14480
aa(lp14481
Vcrude
p14482
aVship
p14483
aa(lp14484
Vearn
p14485
aa(lp14486
Vearn
p14487
aa(lp14488
Vearn
p14489
aa(lp14490
Vtrade
p14491
aa(lp14492
Vcrude
p14493
aVship
p14494
aa(lp14495
Vcrude
p14496
aVship
p14497
aa(lp14498
Vcrude
p14499
aVship
p14500
aa(lp14501
Vearn
p14502
aa(lp14503
Vcrude
p14504
aVship
p14505
aa(lp14506
Vearn
p14507
aa(lp14508
Vearn
p14509
aa(lp14510
Vearn
p14511
aa(lp14512
Vcrude
p14513
aa(lp14514
Vearn
p14515
aa(lp14516
Vmoney-fx
p14517
aa(lp14518
Vearn
p14519
aa(lp14520
Vtrade
p14521
aa(lp14522
Vearn
p14523
aa(lp14524
Vearn
p14525
aa(lp14526
Vearn
p14527
aa(lp14528
Vearn
p14529
aa(lp14530
Vearn
p14531
aa(lp14532
Vearn
p14533
aa(lp14534
Vearn
p14535
aa(lp14536
Vearn
p14537
aa(lp14538
Vearn
p14539
aa(lp14540
Vearn
p14541
aa(lp14542
Vearn
p14543
aa(lp14544
Vearn
p14545
aa(lp14546
Vcrude
p14547
aa(lp14548
Vcrude
p14549
aa(lp14550
Vcrude
p14551
aa(lp14552
Vearn
p14553
aa(lp14554
Vearn
p14555
aa(lp14556
Vgrain
p14557
aVwheat
p14558
aVcorn
p14559
aa(lp14560
Vearn
p14561
aa(lp14562
Vearn
p14563
aa(lp14564
Vearn
p14565
aa(lp14566
Vearn
p14567
aa(lp14568
Vearn
p14569
aa(lp14570
Vearn
p14571
aa(lp14572
Vearn
p14573
aa(lp14574
Vearn
p14575
aa(lp14576
Vearn
p14577
aa(lp14578
Vearn
p14579
aa(lp14580
Vmoney-fx
p14581
aa(lp14582
Vgrain
p14583
aa(lp14584
Vinterest
p14585
aa(lp14586
Vmoney-fx
p14587
aa(lp14588
Vcrude
p14589
aa(lp14590
Vearn
p14591
aa(lp14592
Vearn
p14593
aa(lp14594
Vearn
p14595
aa(lp14596
Vmoney-fx
p14597
aa(lp14598
Vearn
p14599
aa(lp14600
Vearn
p14601
aa(lp14602
Vearn
p14603
aa(lp14604
Vcrude
p14605
aVship
p14606
aa(lp14607
Vmoney-fx
p14608
aa(lp14609
Vgrain
p14610
aa(lp14611
Vmoney-fx
p14612
aa(lp14613
Vmoney-fx
p14614
aa(lp14615
Vearn
p14616
aa(lp14617
Vearn
p14618
aa(lp14619
Vearn
p14620
aa(lp14621
Vgrain
p14622
aa(lp14623
Vmoney-fx
p14624
aa(lp14625
Vearn
p14626
aa(lp14627
Vearn
p14628
aa(lp14629
Vearn
p14630
aa(lp14631
Vearn
p14632
aa(lp14633
Vearn
p14634
aa(lp14635
Vearn
p14636
aa(lp14637
Vearn
p14638
aa(lp14639
Vtrade
p14640
aa(lp14641
Vearn
p14642
aa(lp14643
Vearn
p14644
aa(lp14645
Vearn
p14646
aa(lp14647
Vearn
p14648
aa(lp14649
Vearn
p14650
aa(lp14651
Vearn
p14652
aa(lp14653
Vearn
p14654
aa(lp14655
Vearn
p14656
aa(lp14657
Vcrude
p14658
aa(lp14659
Vearn
p14660
aa(lp14661
Vmoney-fx
p14662
aa(lp14663
Vearn
p14664
aa(lp14665
Vearn
p14666
aa(lp14667
Vearn
p14668
aa(lp14669
Vearn
p14670
aa(lp14671
Vearn
p14672
aa(lp14673
Vearn
p14674
aa(lp14675
Vearn
p14676
aa(lp14677
Vearn
p14678
aa(lp14679
Vearn
p14680
aa(lp14681
Vship
p14682
aVcrude
p14683
aa(lp14684
Vearn
p14685
aa(lp14686
Vearn
p14687
aa(lp14688
Vearn
p14689
aa(lp14690
Vearn
p14691
aa(lp14692
Vearn
p14693
aa(lp14694
Vearn
p14695
aa(lp14696
Vearn
p14697
aa(lp14698
Vearn
p14699
aa(lp14700
Vearn
p14701
aa(lp14702
Vearn
p14703
aa(lp14704
Vearn
p14705
aa(lp14706
Vearn
p14707
aa(lp14708
Vearn
p14709
aa(lp14710
Vearn
p14711
aa(lp14712
Vgrain
p14713
aVwheat
p14714
aVcorn
p14715
aa(lp14716
Vearn
p14717
aa(lp14718
Vearn
p14719
aa(lp14720
Vearn
p14721
aa(lp14722
Vearn
p14723
aa(lp14724
Vearn
p14725
aa(lp14726
Vearn
p14727
aa(lp14728
Vearn
p14729
aa(lp14730
Vearn
p14731
aa(lp14732
Vearn
p14733
aa(lp14734
Vearn
p14735
aa(lp14736
Vearn
p14737
aa(lp14738
Vearn
p14739
aa(lp14740
Vearn
p14741
aa(lp14742
Vcrude
p14743
aa(lp14744
Vearn
p14745
aa(lp14746
Vearn
p14747
aa(lp14748
Vcrude
p14749
aa(lp14750
Vearn
p14751
aa(lp14752
Vmoney-fx
p14753
aa(lp14754
Vearn
p14755
aa(lp14756
Vearn
p14757
aa(lp14758
Vinterest
p14759
aa(lp14760
Vearn
p14761
aa(lp14762
Vearn
p14763
aa(lp14764
Vearn
p14765
aa(lp14766
Vearn
p14767
aa(lp14768
Vearn
p14769
aa(lp14770
Vmoney-fx
p14771
aa(lp14772
Vearn
p14773
aa(lp14774
Vearn
p14775
aa(lp14776
Vearn
p14777
aa(lp14778
Vmoney-fx
p14779
aa(lp14780
Vearn
p14781
aa(lp14782
Vearn
p14783
aa(lp14784
Vearn
p14785
aa(lp14786
Vinterest
p14787
aa(lp14788
Vearn
p14789
aa(lp14790
Vearn
p14791
aa(lp14792
Vmoney-fx
p14793
aa(lp14794
Vinterest
p14795
aa(lp14796
Vmoney-fx
p14797
aa(lp14798
Vearn
p14799
aa(lp14800
Vearn
p14801
aa(lp14802
Vearn
p14803
aa(lp14804
Vearn
p14805
aa(lp14806
Vearn
p14807
aa(lp14808
Vearn
p14809
aa(lp14810
Vearn
p14811
aa(lp14812
Vearn
p14813
aa(lp14814
Vcrude
p14815
aa(lp14816
Vgrain
p14817
aa(lp14818
Vcrude
p14819
aa(lp14820
Vship
p14821
aa(lp14822
Vearn
p14823
aa(lp14824
Vearn
p14825
aa(lp14826
Vearn
p14827
aa(lp14828
Vcrude
p14829
aa(lp14830
Vearn
p14831
aa(lp14832
Vearn
p14833
aa(lp14834
Vearn
p14835
aa(lp14836
Vtrade
p14837
aa(lp14838
Vtrade
p14839
aa(lp14840
Vearn
p14841
aa(lp14842
Vearn
p14843
aa(lp14844
Vearn
p14845
aa(lp14846
Vearn
p14847
aa(lp14848
Vearn
p14849
aa(lp14850
Vearn
p14851
aa(lp14852
Vearn
p14853
aa(lp14854
Vearn
p14855
aa(lp14856
Vcrude
p14857
aa(lp14858
Vmoney-fx
p14859
aVinterest
p14860
aa(lp14861
Vearn
p14862
aa(lp14863
Vearn
p14864
aa(lp14865
Vearn
p14866
aa(lp14867
Vearn
p14868
aa(lp14869
Vearn
p14870
aa(lp14871
Vearn
p14872
aa(lp14873
Vship
p14874
aVcrude
p14875
aa(lp14876
Vearn
p14877
aa(lp14878
Vearn
p14879
aa(lp14880
Vearn
p14881
aa(lp14882
Vearn
p14883
aa(lp14884
Vearn
p14885
aa(lp14886
Vship
p14887
aVcrude
p14888
aa(lp14889
Vearn
p14890
aa(lp14891
Vcrude
p14892
aa(lp14893
Vmoney-fx
p14894
aVinterest
p14895
aa(lp14896
Vearn
p14897
aa(lp14898
Vship
p14899
aVcrude
p14900
aa(lp14901
Vmoney-fx
p14902
aa(lp14903
Vearn
p14904
aa(lp14905
Vearn
p14906
aa(lp14907
Vship
p14908
aVcrude
p14909
aa(lp14910
Vcrude
p14911
aa(lp14912
Vcrude
p14913
aVship
p14914
aa(lp14915
Vship
p14916
aa(lp14917
Vearn
p14918
aa(lp14919
Vearn
p14920
aa(lp14921
Vearn
p14922
aa(lp14923
Vinterest
p14924
aa(lp14925
Vcrude
p14926
aVship
p14927
aa(lp14928
Vgrain
p14929
aVcorn
p14930
aa(lp14931
Vmoney-fx
p14932
aa(lp14933
Vship
p14934
aa(lp14935
Vcrude
p14936
aa(lp14937
Vcrude
p14938
aVship
p14939
aa(lp14940
Vmoney-fx
p14941
aVinterest
p14942
aa(lp14943
Vmoney-fx
p14944
aVinterest
p14945
aa(lp14946
Vinterest
p14947
aVmoney-fx
p14948
aa(lp14949
Vmoney-fx
p14950
aa(lp14951
Vship
p14952
aa(lp14953
Vmoney-fx
p14954
aa(lp14955
Vship
p14956
aa(lp14957
Vship
p14958
aa(lp14959
Vgrain
p14960
aa(lp14961
Vmoney-fx
p14962
aa(lp14963
Vmoney-fx
p14964
aa(lp14965
Vcrude
p14966
aa(lp14967
Vmoney-fx
p14968
aa(lp14969
Vearn
p14970
aa(lp14971
Vearn
p14972
aa(lp14973
Vmoney-fx
p14974
aa(lp14975
Vmoney-fx
p14976
aa(lp14977
Vtrade
p14978
aa(lp14979
Vcrude
p14980
aa(lp14981
Vgrain
p14982
aa(lp14983
Vmoney-fx
p14984
aa(lp14985
Vship
p14986
aa.